
spectre-v3.riscv:     file format elf64-littleriscv
spectre-v3.riscv
architecture: riscv:rv64, flags 0x00000112:
EXEC_P, HAS_SYMS, D_PAGED
start address 0x0000000080000000

Program Header:
0x70000003 off    0x0000000000009600 vaddr 0x0000000000000000 paddr 0x0000000000000000 align 2**0
         filesz 0x000000000000008f memsz 0x0000000000000000 flags r--
    LOAD off    0x0000000000001000 vaddr 0x0000000080000000 paddr 0x0000000080000000 align 2**12
         filesz 0x00000000000013a0 memsz 0x00000000000013b0 flags rwx
    LOAD off    0x0000000000003000 vaddr 0x0000000080004000 paddr 0x0000000080004000 align 2**12
         filesz 0x0000000000001280 memsz 0x0000000000001280 flags rw-

Sections:
Idx Name          Size      VMA               LMA               File off  Algn
  0 .text.init    000001a8  0000000080000000  0000000080000000  00001000  2**2
                  CONTENTS, ALLOC, LOAD, READONLY, CODE
  1 .text.handle_trap 00000088  0000000080001000  0000000080001000  00002000  2**1
                  CONTENTS, ALLOC, LOAD, READONLY, CODE
  2 .text.victim  00000076  0000000080001088  0000000080001088  00002088  2**1
                  CONTENTS, ALLOC, LOAD, READONLY, CODE
  3 .text.main    00000052  00000000800010fe  00000000800010fe  000020fe  2**1
                  CONTENTS, ALLOC, LOAD, READONLY, CODE
  4 .text.init_resetmanager 00000036  0000000080001150  0000000080001150  00002150  2**1
                  CONTENTS, ALLOC, LOAD, READONLY, CODE
  5 .text.get_round_info 00000026  0000000080001186  0000000080001186  00002186  2**1
                  CONTENTS, ALLOC, LOAD, READONLY, CODE
  6 .text.dump_channel 00000060  00000000800011ac  00000000800011ac  000021ac  2**1
                  CONTENTS, ALLOC, LOAD, READONLY, CODE
  7 .text.next_round 00000050  000000008000120c  000000008000120c  0000220c  2**1
                  CONTENTS, ALLOC, LOAD, READONLY, CODE
  8 .text.exit    00000020  000000008000125c  000000008000125c  0000225c  2**1
                  CONTENTS, ALLOC, LOAD, READONLY, CODE
  9 .text.access_time 0000007c  000000008000127c  000000008000127c  0000227c  2**1
                  CONTENTS, ALLOC, LOAD, READONLY, CODE
 10 .text.setup_pmp 00000038  00000000800012f8  00000000800012f8  000022f8  2**1
                  CONTENTS, ALLOC, LOAD, READONLY, CODE
 11 .text._init   0000002e  0000000080001330  0000000080001330  00002330  2**1
                  CONTENTS, ALLOC, LOAD, READONLY, CODE
 12 .rodata       00000030  0000000080001360  0000000080001360  00002360  2**3
                  CONTENTS, ALLOC, LOAD, READONLY, DATA
 13 .sdata        00000010  0000000080001390  0000000080001390  00002390  2**3
                  CONTENTS, ALLOC, LOAD, DATA
 14 .sbss         00000010  00000000800013a0  00000000800013a0  000023a0  2**3
                  ALLOC
 15 .parafuzz_channel 00000280  0000000080005000  0000000080005000  00004000  2**3
                  CONTENTS, ALLOC, LOAD, DATA
 16 .parafuzz_secret 00000075  0000000080004000  0000000080004000  00003000  2**3
                  CONTENTS, ALLOC, LOAD, DATA
 17 .debug_info   00001946  0000000000000000  0000000000000000  00004280  2**0
                  CONTENTS, READONLY, DEBUGGING, OCTETS
 18 .debug_abbrev 00000634  0000000000000000  0000000000000000  00005bc6  2**0
                  CONTENTS, READONLY, DEBUGGING, OCTETS
 19 .debug_aranges 000003b0  0000000000000000  0000000000000000  00006200  2**4
                  CONTENTS, READONLY, DEBUGGING, OCTETS
 20 .debug_rnglists 0000038a  0000000000000000  0000000000000000  000065b0  2**0
                  CONTENTS, READONLY, DEBUGGING, OCTETS
 21 .debug_line   00002331  0000000000000000  0000000000000000  0000693a  2**0
                  CONTENTS, READONLY, DEBUGGING, OCTETS
 22 .debug_str    00000547  0000000000000000  0000000000000000  00008c6b  2**0
                  CONTENTS, READONLY, DEBUGGING, OCTETS
 23 .debug_line_str 0000042d  0000000000000000  0000000000000000  000091b2  2**0
                  CONTENTS, READONLY, DEBUGGING, OCTETS
 24 .comment      00000021  0000000000000000  0000000000000000  000095df  2**0
                  CONTENTS, READONLY
 25 .riscv.attributes 0000008f  0000000000000000  0000000000000000  00009600  2**0
                  CONTENTS, READONLY
 26 .debug_frame  00000948  0000000000000000  0000000000000000  00009690  2**3
                  CONTENTS, READONLY, DEBUGGING, OCTETS
SYMBOL TABLE:
0000000080000000 l    d  .text.init	0000000000000000 .text.init
0000000080001000 l    d  .text.handle_trap	0000000000000000 .text.handle_trap
0000000080001088 l    d  .text.victim	0000000000000000 .text.victim
00000000800010fe l    d  .text.main	0000000000000000 .text.main
0000000080001150 l    d  .text.init_resetmanager	0000000000000000 .text.init_resetmanager
0000000080001186 l    d  .text.get_round_info	0000000000000000 .text.get_round_info
00000000800011ac l    d  .text.dump_channel	0000000000000000 .text.dump_channel
000000008000120c l    d  .text.next_round	0000000000000000 .text.next_round
000000008000125c l    d  .text.exit	0000000000000000 .text.exit
000000008000127c l    d  .text.access_time	0000000000000000 .text.access_time
00000000800012f8 l    d  .text.setup_pmp	0000000000000000 .text.setup_pmp
0000000080001330 l    d  .text._init	0000000000000000 .text._init
0000000080001360 l    d  .rodata	0000000000000000 .rodata
0000000080001390 l    d  .sdata	0000000000000000 .sdata
00000000800013a0 l    d  .sbss	0000000000000000 .sbss
0000000080005000 l    d  .parafuzz_channel	0000000000000000 .parafuzz_channel
0000000080004000 l    d  .parafuzz_secret	0000000000000000 .parafuzz_secret
0000000000000000 l    d  .debug_info	0000000000000000 .debug_info
0000000000000000 l    d  .debug_abbrev	0000000000000000 .debug_abbrev
0000000000000000 l    d  .debug_aranges	0000000000000000 .debug_aranges
0000000000000000 l    d  .debug_rnglists	0000000000000000 .debug_rnglists
0000000000000000 l    d  .debug_line	0000000000000000 .debug_line
0000000000000000 l    d  .debug_str	0000000000000000 .debug_str
0000000000000000 l    d  .debug_line_str	0000000000000000 .debug_line_str
0000000000000000 l    d  .comment	0000000000000000 .comment
0000000000000000 l    d  .riscv.attributes	0000000000000000 .riscv.attributes
0000000000000000 l    d  .debug_frame	0000000000000000 .debug_frame
0000000000000000 l    df *ABS*	0000000000000000 cc9y9Jwj.o
0000000080000114 l       .text.init	0000000000000000 trap_entry
0000000000000000 l    df *ABS*	0000000000000000 main.c
0000000000000000 l    df *ABS*	0000000000000000 parafuzz.c
0000000000000000 l    df *ABS*	0000000000000000 syscalls.c
0000000080001b90 g       .sdata	0000000000000000 __global_pointer$
0000000080001390 g     O .sdata	0000000000000008 state_ptr
0000000080001088 g     F .text.victim	0000000000000076 victim
0000000080001000 g     F .text.handle_trap	0000000000000088 handle_trap
0000000080001398 g     O .sdata	0000000000000008 reset_ptr
0000000080001150 g     F .text.init_resetmanager	0000000000000036 init_resetmanager
0000000080001330 g     F .text._init	000000000000002e _init
00000000800012f8 g     F .text.setup_pmp	0000000000000038 setup_pmp
0000000080000000 g       .text.init	0000000000000000 _start
000000008000127c g     F .text.access_time	000000000000007c access_time
00000000800013a0 g     O .sbss	0000000000000008 guess
000000008000120c g     F .text.next_round	0000000000000050 next_round
0000000080001186 g     F .text.get_round_info	0000000000000026 get_round_info
00000000800011ac g     F .text.dump_channel	0000000000000060 dump_channel
00000000800013a8 g     O .sbss	0000000000000008 current_round
00000000800010fe g     F .text.main	0000000000000052 main
00000000800013b0 g     O .parafuzz_channel	0000000000000000 trapoline
0000000080005000 g     O .parafuzz_channel	0000000000000280 array
00000000800013b0 g       .sbss	0000000000000000 _tdata_end
0000000080005280 g       .parafuzz_channel	0000000000000000 _end
00000000800013b0 g       .sbss	0000000000000000 _tdata_begin
0000000080004000 g     O .parafuzz_secret	0000000000000075 secret
000000008000125c g     F .text.exit	0000000000000020 exit
0000000080004075 g       .parafuzz_secret	0000000000000000 _parafuzz_secret_end
00000000800013b0 g       .sbss	0000000000000000 _tbss_end
0000000080004000 g       .parafuzz_secret	0000000000000000 _parafuzz_secret_start



Disassembly of section .text.init:

0000000080000000 <_start>:

  .section ".text.init"
  .globl _start
  .option norelax
_start:
  li  x1, 0
    80000000:	4081                	li	ra,0
  li  x2, 0
    80000002:	4101                	li	sp,0
  li  x3, 0
    80000004:	4181                	li	gp,0
  li  x4, 0
    80000006:	4201                	li	tp,0
  li  x5, 0
    80000008:	4281                	li	t0,0
  li  x6, 0
    8000000a:	4301                	li	t1,0
  li  x7, 0
    8000000c:	4381                	li	t2,0
  li  x8, 0
    8000000e:	4401                	li	s0,0
  li  x9, 0
    80000010:	4481                	li	s1,0
  li  x10,0
    80000012:	4501                	li	a0,0
  li  x11,0
    80000014:	4581                	li	a1,0
  li  x12,0
    80000016:	4601                	li	a2,0
  li  x13,0
    80000018:	4681                	li	a3,0
  li  x14,0
    8000001a:	4701                	li	a4,0
  li  x15,0
    8000001c:	4781                	li	a5,0
  li  x16,0
    8000001e:	4801                	li	a6,0
  li  x17,0
    80000020:	4881                	li	a7,0
  li  x18,0
    80000022:	4901                	li	s2,0
  li  x19,0
    80000024:	4981                	li	s3,0
  li  x20,0
    80000026:	4a01                	li	s4,0
  li  x21,0
    80000028:	4a81                	li	s5,0
  li  x22,0
    8000002a:	4b01                	li	s6,0
  li  x23,0
    8000002c:	4b81                	li	s7,0
  li  x24,0
    8000002e:	4c01                	li	s8,0
  li  x25,0
    80000030:	4c81                	li	s9,0
  li  x26,0
    80000032:	4d01                	li	s10,0
  li  x27,0
    80000034:	4d81                	li	s11,0
  li  x28,0
    80000036:	4e01                	li	t3,0
  li  x29,0
    80000038:	4e81                	li	t4,0
  li  x30,0
    8000003a:	4f01                	li	t5,0
  li  x31,0
    8000003c:	4f81                	li	t6,0

  # enable FPU, vector, and accelerator if present
  li t0, MSTATUS_FS | MSTATUS_XS | MSTATUS_VS
    8000003e:	62f9                	lui	t0,0x1e
    80000040:	6002829b          	addiw	t0,t0,1536 # 1e600 <_start-0x7ffe1a00>
  csrs mstatus, t0
    80000044:	3002a073          	csrs	mstatus,t0

#ifdef __riscv_flen
  # initialize FPU if we have one
  la t0, 1f
    80000048:	00000297          	auipc	t0,0x0
    8000004c:	09028293          	addi	t0,t0,144 # 800000d8 <_start+0xd8>
  csrw mtvec, t0
    80000050:	30529073          	csrw	mtvec,t0

  fssr    x0
    80000054:	00301073          	fscsr	zero
  fmv.s.x f0, x0
    80000058:	f0000053          	fmv.w.x	ft0,zero
  fmv.s.x f1, x0
    8000005c:	f00000d3          	fmv.w.x	ft1,zero
  fmv.s.x f2, x0
    80000060:	f0000153          	fmv.w.x	ft2,zero
  fmv.s.x f3, x0
    80000064:	f00001d3          	fmv.w.x	ft3,zero
  fmv.s.x f4, x0
    80000068:	f0000253          	fmv.w.x	ft4,zero
  fmv.s.x f5, x0
    8000006c:	f00002d3          	fmv.w.x	ft5,zero
  fmv.s.x f6, x0
    80000070:	f0000353          	fmv.w.x	ft6,zero
  fmv.s.x f7, x0
    80000074:	f00003d3          	fmv.w.x	ft7,zero
  fmv.s.x f8, x0
    80000078:	f0000453          	fmv.w.x	fs0,zero
  fmv.s.x f9, x0
    8000007c:	f00004d3          	fmv.w.x	fs1,zero
  fmv.s.x f10,x0
    80000080:	f0000553          	fmv.w.x	fa0,zero
  fmv.s.x f11,x0
    80000084:	f00005d3          	fmv.w.x	fa1,zero
  fmv.s.x f12,x0
    80000088:	f0000653          	fmv.w.x	fa2,zero
  fmv.s.x f13,x0
    8000008c:	f00006d3          	fmv.w.x	fa3,zero
  fmv.s.x f14,x0
    80000090:	f0000753          	fmv.w.x	fa4,zero
  fmv.s.x f15,x0
    80000094:	f00007d3          	fmv.w.x	fa5,zero
  fmv.s.x f16,x0
    80000098:	f0000853          	fmv.w.x	fa6,zero
  fmv.s.x f17,x0
    8000009c:	f00008d3          	fmv.w.x	fa7,zero
  fmv.s.x f18,x0
    800000a0:	f0000953          	fmv.w.x	fs2,zero
  fmv.s.x f19,x0
    800000a4:	f00009d3          	fmv.w.x	fs3,zero
  fmv.s.x f20,x0
    800000a8:	f0000a53          	fmv.w.x	fs4,zero
  fmv.s.x f21,x0
    800000ac:	f0000ad3          	fmv.w.x	fs5,zero
  fmv.s.x f22,x0
    800000b0:	f0000b53          	fmv.w.x	fs6,zero
  fmv.s.x f23,x0
    800000b4:	f0000bd3          	fmv.w.x	fs7,zero
  fmv.s.x f24,x0
    800000b8:	f0000c53          	fmv.w.x	fs8,zero
  fmv.s.x f25,x0
    800000bc:	f0000cd3          	fmv.w.x	fs9,zero
  fmv.s.x f26,x0
    800000c0:	f0000d53          	fmv.w.x	fs10,zero
  fmv.s.x f27,x0
    800000c4:	f0000dd3          	fmv.w.x	fs11,zero
  fmv.s.x f28,x0
    800000c8:	f0000e53          	fmv.w.x	ft8,zero
  fmv.s.x f29,x0
    800000cc:	f0000ed3          	fmv.w.x	ft9,zero
  fmv.s.x f30,x0
    800000d0:	f0000f53          	fmv.w.x	ft10,zero
  fmv.s.x f31,x0
    800000d4:	f0000fd3          	fmv.w.x	ft11,zero
1:
#endif

  # initialize trap vector
  la t0, trap_entry
    800000d8:	00000297          	auipc	t0,0x0
    800000dc:	03c28293          	addi	t0,t0,60 # 80000114 <trap_entry>
  csrw mtvec, t0
    800000e0:	30529073          	csrw	mtvec,t0

  # initialize global pointer
.option push
.option norelax
  la gp, __global_pointer$
    800000e4:	00002197          	auipc	gp,0x2
    800000e8:	aac18193          	addi	gp,gp,-1364 # 80001b90 <__global_pointer$>
.option pop

  la  tp, _end + 63
    800000ec:	00005217          	auipc	tp,0x5
    800000f0:	1d320213          	addi	tp,tp,467 # 800052bf <_end+0x3f>
  and tp, tp, -64
    800000f4:	fc027213          	andi	tp,tp,-64

  # get core id
  csrr a0, mhartid
    800000f8:	f1402573          	csrr	a0,mhartid
  # for now, assume only 1 core
  li a1, 1
    800000fc:	4585                	li	a1,1
1:bgeu a0, a1, 1b
    800000fe:	00b57063          	bgeu	a0,a1,800000fe <_start+0xfe>

  # give each core 128KB of stack + TLS
#define STKSHIFT 17
  add sp, a0, 1
    80000102:	00150113          	addi	sp,a0,1
  sll sp, sp, STKSHIFT
    80000106:	0146                	slli	sp,sp,0x11
  add sp, sp, tp
    80000108:	9112                	add	sp,sp,tp
  sll a2, a0, STKSHIFT
    8000010a:	01151613          	slli	a2,a0,0x11
  add tp, tp, a2
    8000010e:	9232                	add	tp,tp,a2

  j _init
    80000110:	2200106f          	j	80001330 <_init>

0000000080000114 <trap_entry>:

  .align 2
trap_entry:
  addi sp, sp, -272
    80000114:	716d                	addi	sp,sp,-272

  SREG x1, 1*REGBYTES(sp)
    80000116:	e406                	sd	ra,8(sp)
  SREG x2, 2*REGBYTES(sp)
    80000118:	e80a                	sd	sp,16(sp)
  SREG x3, 3*REGBYTES(sp)
    8000011a:	ec0e                	sd	gp,24(sp)
  SREG x4, 4*REGBYTES(sp)
    8000011c:	f012                	sd	tp,32(sp)
  SREG x5, 5*REGBYTES(sp)
    8000011e:	f416                	sd	t0,40(sp)
  SREG x6, 6*REGBYTES(sp)
    80000120:	f81a                	sd	t1,48(sp)
  SREG x7, 7*REGBYTES(sp)
    80000122:	fc1e                	sd	t2,56(sp)
  SREG x8, 8*REGBYTES(sp)
    80000124:	e0a2                	sd	s0,64(sp)
  SREG x9, 9*REGBYTES(sp)
    80000126:	e4a6                	sd	s1,72(sp)
  SREG x10, 10*REGBYTES(sp)
    80000128:	e8aa                	sd	a0,80(sp)
  SREG x11, 11*REGBYTES(sp)
    8000012a:	ecae                	sd	a1,88(sp)
  SREG x12, 12*REGBYTES(sp)
    8000012c:	f0b2                	sd	a2,96(sp)
  SREG x13, 13*REGBYTES(sp)
    8000012e:	f4b6                	sd	a3,104(sp)
  SREG x14, 14*REGBYTES(sp)
    80000130:	f8ba                	sd	a4,112(sp)
  SREG x15, 15*REGBYTES(sp)
    80000132:	fcbe                	sd	a5,120(sp)
  SREG x16, 16*REGBYTES(sp)
    80000134:	e142                	sd	a6,128(sp)
  SREG x17, 17*REGBYTES(sp)
    80000136:	e546                	sd	a7,136(sp)
  SREG x18, 18*REGBYTES(sp)
    80000138:	e94a                	sd	s2,144(sp)
  SREG x19, 19*REGBYTES(sp)
    8000013a:	ed4e                	sd	s3,152(sp)
  SREG x20, 20*REGBYTES(sp)
    8000013c:	f152                	sd	s4,160(sp)
  SREG x21, 21*REGBYTES(sp)
    8000013e:	f556                	sd	s5,168(sp)
  SREG x22, 22*REGBYTES(sp)
    80000140:	f95a                	sd	s6,176(sp)
  SREG x23, 23*REGBYTES(sp)
    80000142:	fd5e                	sd	s7,184(sp)
  SREG x24, 24*REGBYTES(sp)
    80000144:	e1e2                	sd	s8,192(sp)
  SREG x25, 25*REGBYTES(sp)
    80000146:	e5e6                	sd	s9,200(sp)
  SREG x26, 26*REGBYTES(sp)
    80000148:	e9ea                	sd	s10,208(sp)
  SREG x27, 27*REGBYTES(sp)
    8000014a:	edee                	sd	s11,216(sp)
  SREG x28, 28*REGBYTES(sp)
    8000014c:	f1f2                	sd	t3,224(sp)
  SREG x29, 29*REGBYTES(sp)
    8000014e:	f5f6                	sd	t4,232(sp)
  SREG x30, 30*REGBYTES(sp)
    80000150:	f9fa                	sd	t5,240(sp)
  SREG x31, 31*REGBYTES(sp)
    80000152:	fdfe                	sd	t6,248(sp)

  csrr a0, mcause
    80000154:	34202573          	csrr	a0,mcause
  csrr a1, mepc
    80000158:	341025f3          	csrr	a1,mepc
  mv a2, sp
    8000015c:	860a                	mv	a2,sp
  jal handle_trap
    8000015e:	6a3000ef          	jal	ra,80001000 <handle_trap>

  LREG x1, 1*REGBYTES(sp)
    80000162:	60a2                	ld	ra,8(sp)
  LREG x2, 2*REGBYTES(sp)
    80000164:	6142                	ld	sp,16(sp)
  LREG x3, 3*REGBYTES(sp)
    80000166:	61e2                	ld	gp,24(sp)
  LREG x4, 4*REGBYTES(sp)
    80000168:	7202                	ld	tp,32(sp)
  LREG x5, 5*REGBYTES(sp)
    8000016a:	72a2                	ld	t0,40(sp)
  LREG x6, 6*REGBYTES(sp)
    8000016c:	7342                	ld	t1,48(sp)
  LREG x7, 7*REGBYTES(sp)
    8000016e:	73e2                	ld	t2,56(sp)
  LREG x8, 8*REGBYTES(sp)
    80000170:	6406                	ld	s0,64(sp)
  LREG x9, 9*REGBYTES(sp)
    80000172:	64a6                	ld	s1,72(sp)
  LREG x10, 10*REGBYTES(sp)
    80000174:	6546                	ld	a0,80(sp)
  LREG x11, 11*REGBYTES(sp)
    80000176:	65e6                	ld	a1,88(sp)
  LREG x12, 12*REGBYTES(sp)
    80000178:	7606                	ld	a2,96(sp)
  LREG x13, 13*REGBYTES(sp)
    8000017a:	76a6                	ld	a3,104(sp)
  LREG x14, 14*REGBYTES(sp)
    8000017c:	7746                	ld	a4,112(sp)
  LREG x15, 15*REGBYTES(sp)
    8000017e:	77e6                	ld	a5,120(sp)
  LREG x16, 16*REGBYTES(sp)
    80000180:	680a                	ld	a6,128(sp)
  LREG x17, 17*REGBYTES(sp)
    80000182:	68aa                	ld	a7,136(sp)
  LREG x18, 18*REGBYTES(sp)
    80000184:	694a                	ld	s2,144(sp)
  LREG x19, 19*REGBYTES(sp)
    80000186:	69ea                	ld	s3,152(sp)
  LREG x20, 20*REGBYTES(sp)
    80000188:	7a0a                	ld	s4,160(sp)
  LREG x21, 21*REGBYTES(sp)
    8000018a:	7aaa                	ld	s5,168(sp)
  LREG x22, 22*REGBYTES(sp)
    8000018c:	7b4a                	ld	s6,176(sp)
  LREG x23, 23*REGBYTES(sp)
    8000018e:	7bea                	ld	s7,184(sp)
  LREG x24, 24*REGBYTES(sp)
    80000190:	6c0e                	ld	s8,192(sp)
  LREG x25, 25*REGBYTES(sp)
    80000192:	6cae                	ld	s9,200(sp)
  LREG x26, 26*REGBYTES(sp)
    80000194:	6d4e                	ld	s10,208(sp)
  LREG x27, 27*REGBYTES(sp)
    80000196:	6dee                	ld	s11,216(sp)
  LREG x28, 28*REGBYTES(sp)
    80000198:	7e0e                	ld	t3,224(sp)
  LREG x29, 29*REGBYTES(sp)
    8000019a:	7eae                	ld	t4,232(sp)
  LREG x30, 30*REGBYTES(sp)
    8000019c:	7f4e                	ld	t5,240(sp)
  LREG x31, 31*REGBYTES(sp)
    8000019e:	7fee                	ld	t6,248(sp)

  addi sp, sp, 272
    800001a0:	6151                	addi	sp,sp,272
  mret
    800001a2:	30200073          	mret
    800001a6:	0001                	nop

Disassembly of section .text.handle_trap:

0000000080001000 <handle_trap>:
#include "parafuzz.h"
#include "boom_conf.h"

PARAFUZZ_DEFINE;

void handle_trap(uintptr_t cause, uintptr_t epc, uintptr_t regs[32]) {
    80001000:	7139                	addi	sp,sp,-64
    80001002:	fc06                	sd	ra,56(sp)
    80001004:	f822                	sd	s0,48(sp)
    80001006:	0080                	addi	s0,sp,64
    80001008:	fca43c23          	sd	a0,-40(s0)
    8000100c:	fcb43823          	sd	a1,-48(s0)
    80001010:	fcc43423          	sd	a2,-56(s0)
  if (cause == CAUSE_LOAD_ACCESS ||
    80001014:	fd843703          	ld	a4,-40(s0)
    80001018:	4795                	li	a5,5
    8000101a:	00f70c63          	beq	a4,a5,80001032 <handle_trap+0x32>
    8000101e:	fd843703          	ld	a4,-40(s0)
    80001022:	479d                	li	a5,7
    80001024:	00f70763          	beq	a4,a5,80001032 <handle_trap+0x32>
      cause == CAUSE_STORE_ACCESS ||
    80001028:	fd843703          	ld	a4,-40(s0)
    8000102c:	4785                	li	a5,1
    8000102e:	04f71963          	bne	a4,a5,80001080 <handle_trap+0x80>
      cause == CAUSE_FETCH_ACCESS) {
    // printf("xcpt: %lx %lx \n", epc, read_csr(mtval));
    uint64_t res = access_time(&array[0], guess, 0);
    80001032:	00000797          	auipc	a5,0x0
    80001036:	36e78793          	addi	a5,a5,878 # 800013a0 <guess>
    8000103a:	639c                	ld	a5,0(a5)
    8000103c:	2781                	sext.w	a5,a5
    8000103e:	4601                	li	a2,0
    80001040:	85be                	mv	a1,a5
    80001042:	00004517          	auipc	a0,0x4
    80001046:	fbe50513          	addi	a0,a0,-66 # 80005000 <array>
    8000104a:	232000ef          	jal	ra,8000127c <access_time>
    8000104e:	fea43423          	sd	a0,-24(s0)
    dump_channel(res, &array[0] + guess*CACHE_BLOCK);
    80001052:	00000797          	auipc	a5,0x0
    80001056:	34e78793          	addi	a5,a5,846 # 800013a0 <guess>
    8000105a:	639c                	ld	a5,0(a5)
    8000105c:	00679713          	slli	a4,a5,0x6
    80001060:	00004797          	auipc	a5,0x4
    80001064:	fa078793          	addi	a5,a5,-96 # 80005000 <array>
    80001068:	97ba                	add	a5,a5,a4
    8000106a:	85be                	mv	a1,a5
    8000106c:	fe843503          	ld	a0,-24(s0)
    80001070:	13c000ef          	jal	ra,800011ac <dump_channel>
    next_round();
    80001074:	198000ef          	jal	ra,8000120c <next_round>
    exit(1338);
    80001078:	53a00513          	li	a0,1338
    8000107c:	1e0000ef          	jal	ra,8000125c <exit>
  }
  else {
    exit(1337);
    80001080:	53900513          	li	a0,1337
    80001084:	1d8000ef          	jal	ra,8000125c <exit>

Disassembly of section .text.victim:

0000000080001088 <victim>:
  }
}

void victim(int64_t offset) {
    80001088:	7139                	addi	sp,sp,-64
    8000108a:	fc22                	sd	s0,56(sp)
    8000108c:	0080                	addi	s0,sp,64
    8000108e:	fca43423          	sd	a0,-56(s0)
  uint64_t dummy1 = 0xa234b057963aef89ul;
    80001092:	00000797          	auipc	a5,0x0
    80001096:	2ce78793          	addi	a5,a5,718 # 80001360 <_init+0x30>
    8000109a:	639c                	ld	a5,0(a5)
    8000109c:	fef43423          	sd	a5,-24(s0)
  uint64_t dummy2 = 0x56fea3467def0136ul;
    800010a0:	00000797          	auipc	a5,0x0
    800010a4:	2c878793          	addi	a5,a5,712 # 80001368 <_init+0x38>
    800010a8:	639c                	ld	a5,0(a5)
    800010aa:	fef43023          	sd	a5,-32(s0)

  asm("fcvt.s.lu	fa4, %[dummy1]\n"
    800010ae:	fe843703          	ld	a4,-24(s0)
    800010b2:	fe043783          	ld	a5,-32(s0)
    800010b6:	d0377753          	fcvt.s.lu	fa4,a4
    800010ba:	d037f7d3          	fcvt.s.lu	fa5,a5
    800010be:	18e7f7d3          	fdiv.s	fa5,fa5,fa4
    800010c2:	18e7f7d3          	fdiv.s	fa5,fa5,fa4
    800010c6:	18e7f7d3          	fdiv.s	fa5,fa5,fa4
    800010ca:	18e7f7d3          	fdiv.s	fa5,fa5,fa4
    800010ce:	c03797d3          	fcvt.lu.s	a5,fa5,rtz
    800010d2:	fef43023          	sd	a5,-32(s0)
      : [dummy2] "+r" (dummy2)
      : [dummy1] "r" (dummy1)
      : "fa4", "fa5");

    leak_me:
      uint8_t dummy3 = array[secret[LEAK_TARGET]*CACHE_BLOCK];
    800010d6:	00003797          	auipc	a5,0x3
    800010da:	f2a78793          	addi	a5,a5,-214 # 80004000 <secret>
    800010de:	0017c783          	lbu	a5,1(a5)
    800010e2:	2781                	sext.w	a5,a5
    800010e4:	0067979b          	slliw	a5,a5,0x6
    800010e8:	2781                	sext.w	a5,a5
    800010ea:	00004717          	auipc	a4,0x4
    800010ee:	f1670713          	addi	a4,a4,-234 # 80005000 <array>
    800010f2:	97ba                	add	a5,a5,a4
    800010f4:	0007c783          	lbu	a5,0(a5)
    800010f8:	fcf40fa3          	sb	a5,-33(s0)
    goto leak_me;
    800010fc:	bfe9                	j	800010d6 <victim+0x4e>

Disassembly of section .text.main:

00000000800010fe <main>:
}

int main(int argc, char* argv[] ) {
    800010fe:	7179                	addi	sp,sp,-48
    80001100:	f406                	sd	ra,40(sp)
    80001102:	f022                	sd	s0,32(sp)
    80001104:	1800                	addi	s0,sp,48
    80001106:	87aa                	mv	a5,a0
    80001108:	fcb43823          	sd	a1,-48(s0)
    8000110c:	fcf42e23          	sw	a5,-36(s0)
  init_resetmanager();
    80001110:	040000ef          	jal	ra,80001150 <init_resetmanager>
  guess = get_round_info();
    80001114:	072000ef          	jal	ra,80001186 <get_round_info>
    80001118:	872a                	mv	a4,a0
    8000111a:	00000797          	auipc	a5,0x0
    8000111e:	28678793          	addi	a5,a5,646 # 800013a0 <guess>
    80001122:	e398                	sd	a4,0(a5)

  setup_pmp();
    80001124:	1d4000ef          	jal	ra,800012f8 <setup_pmp>

  int64_t secret_offset = (unsigned char*)&secret[LEAK_TARGET] - (unsigned char*)&trapoline;
    80001128:	00003717          	auipc	a4,0x3
    8000112c:	ed970713          	addi	a4,a4,-295 # 80004001 <secret+0x1>
    80001130:	82018793          	addi	a5,gp,-2016 # 800013b0 <trapoline>
    80001134:	40f707b3          	sub	a5,a4,a5
    80001138:	fef43423          	sd	a5,-24(s0)
  victim(secret_offset);
    8000113c:	fe843503          	ld	a0,-24(s0)
    80001140:	f49ff0ef          	jal	ra,80001088 <victim>

  return 0;
    80001144:	4781                	li	a5,0
}
    80001146:	853e                	mv	a0,a5
    80001148:	70a2                	ld	ra,40(sp)
    8000114a:	7402                	ld	s0,32(sp)
    8000114c:	6145                	addi	sp,sp,48
    8000114e:	8082                	ret

Disassembly of section .text.init_resetmanager:

0000000080001150 <init_resetmanager>:
#define GUESS_START   100
#define GUESS_END     105

extern char secret[];

void init_resetmanager() {
    80001150:	1141                	addi	sp,sp,-16
    80001152:	e406                	sd	ra,8(sp)
    80001154:	e022                	sd	s0,0(sp)
    80001156:	0800                	addi	s0,sp,16
  current_round = get_round_info();
    80001158:	02e000ef          	jal	ra,80001186 <get_round_info>
    8000115c:	872a                	mv	a4,a0
    8000115e:	81818793          	addi	a5,gp,-2024 # 800013a8 <current_round>
    80001162:	e398                	sd	a4,0(a5)
  if (current_round == 0) {
    80001164:	81818793          	addi	a5,gp,-2024 # 800013a8 <current_round>
    80001168:	639c                	ld	a5,0(a5)
    8000116a:	eb89                	bnez	a5,8000117c <init_resetmanager+0x2c>
    *state_ptr = GUESS_START;
    8000116c:	00000797          	auipc	a5,0x0
    80001170:	22478793          	addi	a5,a5,548 # 80001390 <state_ptr>
    80001174:	639c                	ld	a5,0(a5)
    80001176:	06400713          	li	a4,100
    8000117a:	e398                	sd	a4,0(a5)
  }
}
    8000117c:	0001                	nop
    8000117e:	60a2                	ld	ra,8(sp)
    80001180:	6402                	ld	s0,0(sp)
    80001182:	0141                	addi	sp,sp,16
    80001184:	8082                	ret

Disassembly of section .text.get_round_info:

0000000080001186 <get_round_info>:

uint64_t get_round_info() {
    80001186:	1141                	addi	sp,sp,-16
    80001188:	e422                	sd	s0,8(sp)
    8000118a:	0800                	addi	s0,sp,16
  current_round = *state_ptr;
    8000118c:	00000797          	auipc	a5,0x0
    80001190:	20478793          	addi	a5,a5,516 # 80001390 <state_ptr>
    80001194:	639c                	ld	a5,0(a5)
    80001196:	6398                	ld	a4,0(a5)
    80001198:	81818793          	addi	a5,gp,-2024 # 800013a8 <current_round>
    8000119c:	e398                	sd	a4,0(a5)
  return current_round;
    8000119e:	81818793          	addi	a5,gp,-2024 # 800013a8 <current_round>
    800011a2:	639c                	ld	a5,0(a5)
}
    800011a4:	853e                	mv	a0,a5
    800011a6:	6422                	ld	s0,8(sp)
    800011a8:	0141                	addi	sp,sp,16
    800011aa:	8082                	ret

Disassembly of section .text.dump_channel:

00000000800011ac <dump_channel>:

void dump_channel(uint64_t time, uint8_t* addr) {
    800011ac:	1101                	addi	sp,sp,-32
    800011ae:	ec22                	sd	s0,24(sp)
    800011b0:	1000                	addi	s0,sp,32
    800011b2:	fea43423          	sd	a0,-24(s0)
    800011b6:	feb43023          	sd	a1,-32(s0)
  asm volatile(
    800011ba:	81818793          	addi	a5,gp,-2024 # 800013a8 <current_round>
    800011be:	638c                	ld	a1,0(a5)
    800011c0:	00000797          	auipc	a5,0x0
    800011c4:	1b078793          	addi	a5,a5,432 # 80001370 <_init+0x40>
    800011c8:	639c                	ld	a5,0(a5)
    800011ca:	00000717          	auipc	a4,0x0
    800011ce:	1ae70713          	addi	a4,a4,430 # 80001378 <_init+0x48>
    800011d2:	6318                	ld	a4,0(a4)
    800011d4:	00000697          	auipc	a3,0x0
    800011d8:	1ac68693          	addi	a3,a3,428 # 80001380 <_init+0x50>
    800011dc:	6294                	ld	a3,0(a3)
    800011de:	fe843603          	ld	a2,-24(s0)
    800011e2:	fe043503          	ld	a0,-32(s0)
    800011e6:	4829                	li	a6,10
    800011e8:	80071073          	csrw	0x800,a4
    800011ec:	80051073          	csrw	0x800,a0
    800011f0:	80079073          	csrw	0x800,a5
    800011f4:	80059073          	csrw	0x800,a1
    800011f8:	80061073          	csrw	0x800,a2
    800011fc:	80069073          	csrw	0x800,a3
    80001200:	80081073          	csrw	0x800,a6
      [time] "r" (time),
      [guess] "r" (current_round),
      [addr] "r" (addr),
      [done] "r" ('\n')
  );
}
    80001204:	0001                	nop
    80001206:	6462                	ld	s0,24(sp)
    80001208:	6105                	addi	sp,sp,32
    8000120a:	8082                	ret

Disassembly of section .text.next_round:

000000008000120c <next_round>:

void next_round() {
    8000120c:	1141                	addi	sp,sp,-16
    8000120e:	e406                	sd	ra,8(sp)
    80001210:	e022                	sd	s0,0(sp)
    80001212:	0800                	addi	s0,sp,16
  if (current_round >= GUESS_END) {
    80001214:	81818793          	addi	a5,gp,-2024 # 800013a8 <current_round>
    80001218:	6398                	ld	a4,0(a5)
    8000121a:	06800793          	li	a5,104
    8000121e:	00e7f563          	bgeu	a5,a4,80001228 <next_round+0x1c>
    //   "csrw 0x800, %[secret]\n"
    //   : :
    //     [default_mode] "r" ((CMD_SWITCH_STATE | STATE_DEFAULT)), 
    //     [secret] "r" (secret[LEAK_TARGET])
    // );
    exit(0);
    80001222:	4501                	li	a0,0
    80001224:	038000ef          	jal	ra,8000125c <exit>
  } else {
    *state_ptr = *state_ptr + 1;
    80001228:	00000797          	auipc	a5,0x0
    8000122c:	16878793          	addi	a5,a5,360 # 80001390 <state_ptr>
    80001230:	639c                	ld	a5,0(a5)
    80001232:	6398                	ld	a4,0(a5)
    80001234:	00000797          	auipc	a5,0x0
    80001238:	15c78793          	addi	a5,a5,348 # 80001390 <state_ptr>
    8000123c:	639c                	ld	a5,0(a5)
    8000123e:	0705                	addi	a4,a4,1
    80001240:	e398                	sd	a4,0(a5)
    *reset_ptr = 50;
    80001242:	00000797          	auipc	a5,0x0
    80001246:	15678793          	addi	a5,a5,342 # 80001398 <reset_ptr>
    8000124a:	639c                	ld	a5,0(a5)
    8000124c:	03200713          	li	a4,50
    80001250:	e398                	sd	a4,0(a5)
  }
}
    80001252:	0001                	nop
    80001254:	60a2                	ld	ra,8(sp)
    80001256:	6402                	ld	s0,0(sp)
    80001258:	0141                	addi	sp,sp,16
    8000125a:	8082                	ret

Disassembly of section .text.exit:

000000008000125c <exit>:

void exit(int code) {
    8000125c:	1101                	addi	sp,sp,-32
    8000125e:	ec22                	sd	s0,24(sp)
    80001260:	1000                	addi	s0,sp,32
    80001262:	87aa                	mv	a5,a0
    80001264:	fef42623          	sw	a5,-20(s0)
  asm volatile(
    "csrw 0x800, %[stop]\n"
    : :
      [stop] "r" (CMD_POWER_OFF | code)
    80001268:	fec42703          	lw	a4,-20(s0)
    8000126c:	00000797          	auipc	a5,0x0
    80001270:	11c78793          	addi	a5,a5,284 # 80001388 <_init+0x58>
    80001274:	639c                	ld	a5,0(a5)
    80001276:	8fd9                	or	a5,a5,a4
  asm volatile(
    80001278:	80079073          	csrw	0x800,a5

Disassembly of section .text.access_time:

000000008000127c <access_time>:
  );

  __builtin_unreachable();
}

uint64_t access_time(uint8_t* base, int index, int offset) {
    8000127c:	715d                	addi	sp,sp,-80
    8000127e:	e4a2                	sd	s0,72(sp)
    80001280:	0880                	addi	s0,sp,80
    80001282:	faa43c23          	sd	a0,-72(s0)
    80001286:	87ae                	mv	a5,a1
    80001288:	8732                	mv	a4,a2
    8000128a:	faf42a23          	sw	a5,-76(s0)
    8000128e:	87ba                	mv	a5,a4
    80001290:	faf42823          	sw	a5,-80(s0)
  uint64_t time1 = 0, time2;
    80001294:	fe043423          	sd	zero,-24(s0)
  uint8_t *addr = base + index*CACHE_BLOCK + offset;
    80001298:	fb442783          	lw	a5,-76(s0)
    8000129c:	0067979b          	slliw	a5,a5,0x6
    800012a0:	2781                	sext.w	a5,a5
    800012a2:	873e                	mv	a4,a5
    800012a4:	fb042783          	lw	a5,-80(s0)
    800012a8:	97ba                	add	a5,a5,a4
    800012aa:	fb843703          	ld	a4,-72(s0)
    800012ae:	97ba                	add	a5,a5,a4
    800012b0:	fef43023          	sd	a5,-32(s0)
  int junk = 0;
    800012b4:	fc042e23          	sw	zero,-36(s0)
  time1 = read_csr(mcycle);
    800012b8:	b00027f3          	csrr	a5,mcycle
    800012bc:	fcf43823          	sd	a5,-48(s0)
    800012c0:	fd043783          	ld	a5,-48(s0)
    800012c4:	fef43423          	sd	a5,-24(s0)
  junk = *(addr);
    800012c8:	fe043783          	ld	a5,-32(s0)
    800012cc:	0007c783          	lbu	a5,0(a5)
    800012d0:	fcf42e23          	sw	a5,-36(s0)
  time2 = read_csr(mcycle);
    800012d4:	b00027f3          	csrr	a5,mcycle
    800012d8:	fcf43423          	sd	a5,-56(s0)
    800012dc:	fc843783          	ld	a5,-56(s0)
    800012e0:	fcf43023          	sd	a5,-64(s0)
  //   "[*] Access time for array[%4d*%4d~%4d]@%p=%ld, takes %ld CPU cycles\n", 
  //     index, CACHE_BLOCK, offset,
  //     addr, junk, 
  //     time2-time1);

  return time2-time1;
    800012e4:	fc043703          	ld	a4,-64(s0)
    800012e8:	fe843783          	ld	a5,-24(s0)
    800012ec:	40f707b3          	sub	a5,a4,a5
}
    800012f0:	853e                	mv	a0,a5
    800012f2:	6426                	ld	s0,72(sp)
    800012f4:	6161                	addi	sp,sp,80
    800012f6:	8082                	ret

Disassembly of section .text.setup_pmp:

00000000800012f8 <setup_pmp>:

void setup_pmp() {
    800012f8:	1101                	addi	sp,sp,-32
    800012fa:	ec22                	sd	s0,24(sp)
    800012fc:	1000                	addi	s0,sp,32
  uintptr_t cfg0, addr0;
  addr0 = ((uintptr_t) _parafuzz_secret_start | (0x1000 - 1)) >> 2;
    800012fe:	00003797          	auipc	a5,0x3
    80001302:	d0278793          	addi	a5,a5,-766 # 80004000 <secret>
    80001306:	8389                	srli	a5,a5,0x2
    80001308:	3ff7e793          	ori	a5,a5,1023
    8000130c:	fef43423          	sd	a5,-24(s0)
  write_csr(pmpaddr0, addr0);
    80001310:	fe843783          	ld	a5,-24(s0)
    80001314:	3b079073          	csrw	pmpaddr0,a5
  cfg0 = PMP_NAPOT | PMP_L;
    80001318:	09800793          	li	a5,152
    8000131c:	fef43023          	sd	a5,-32(s0)
  write_csr(pmpcfg0, cfg0);
    80001320:	fe043783          	ld	a5,-32(s0)
    80001324:	3a079073          	csrw	pmpcfg0,a5
}
    80001328:	0001                	nop
    8000132a:	6462                	ld	s0,24(sp)
    8000132c:	6105                	addi	sp,sp,32
    8000132e:	8082                	ret

Disassembly of section .text._init:

0000000080001330 <_init>:
  printstr("Implement main(), foo!\n");
  return -1;
}

void _init(int cid, int nc)
{
    80001330:	7179                	addi	sp,sp,-48
    80001332:	f406                	sd	ra,40(sp)
    80001334:	f022                	sd	s0,32(sp)
    80001336:	1800                	addi	s0,sp,48
    80001338:	87aa                	mv	a5,a0
    8000133a:	872e                	mv	a4,a1
    8000133c:	fcf42e23          	sw	a5,-36(s0)
    80001340:	87ba                	mv	a5,a4
    80001342:	fcf42c23          	sw	a5,-40(s0)

  int ret = main(0, 0);
    80001346:	4581                	li	a1,0
    80001348:	4501                	li	a0,0
    8000134a:	db5ff0ef          	jal	ra,800010fe <main>
    8000134e:	87aa                	mv	a5,a0
    80001350:	fef42623          	sw	a5,-20(s0)

  exit(ret);
    80001354:	fec42783          	lw	a5,-20(s0)
    80001358:	853e                	mv	a0,a5
    8000135a:	f03ff0ef          	jal	ra,8000125c <exit>

Disassembly of section .parafuzz_channel:

0000000080005000 <array>:
    80005000:	1e1e                	slli	t3,t3,0x27
    80005002:	1e1e                	slli	t3,t3,0x27
    80005004:	1e1e                	slli	t3,t3,0x27
    80005006:	1e1e                	slli	t3,t3,0x27
    80005008:	1e1e                	slli	t3,t3,0x27
    8000500a:	1e1e                	slli	t3,t3,0x27
    8000500c:	1e1e                	slli	t3,t3,0x27
    8000500e:	1e1e                	slli	t3,t3,0x27
    80005010:	1e1e                	slli	t3,t3,0x27
    80005012:	1e1e                	slli	t3,t3,0x27
    80005014:	1e1e                	slli	t3,t3,0x27
    80005016:	1e1e                	slli	t3,t3,0x27
    80005018:	1e1e                	slli	t3,t3,0x27
    8000501a:	1e1e                	slli	t3,t3,0x27
    8000501c:	1e1e                	slli	t3,t3,0x27
    8000501e:	1e1e                	slli	t3,t3,0x27
    80005020:	1e1e                	slli	t3,t3,0x27
    80005022:	1e1e                	slli	t3,t3,0x27
    80005024:	1e1e                	slli	t3,t3,0x27
    80005026:	1e1e                	slli	t3,t3,0x27
    80005028:	1e1e                	slli	t3,t3,0x27
    8000502a:	1e1e                	slli	t3,t3,0x27
    8000502c:	1e1e                	slli	t3,t3,0x27
    8000502e:	1e1e                	slli	t3,t3,0x27
    80005030:	1e1e                	slli	t3,t3,0x27
    80005032:	1e1e                	slli	t3,t3,0x27
    80005034:	1e1e                	slli	t3,t3,0x27
    80005036:	1e1e                	slli	t3,t3,0x27
    80005038:	1e1e                	slli	t3,t3,0x27
    8000503a:	1e1e                	slli	t3,t3,0x27
    8000503c:	1e1e                	slli	t3,t3,0x27
    8000503e:	1e1e                	slli	t3,t3,0x27
    80005040:	1e1e                	slli	t3,t3,0x27
    80005042:	1e1e                	slli	t3,t3,0x27
    80005044:	1e1e                	slli	t3,t3,0x27
    80005046:	1e1e                	slli	t3,t3,0x27
    80005048:	1e1e                	slli	t3,t3,0x27
    8000504a:	1e1e                	slli	t3,t3,0x27
    8000504c:	1e1e                	slli	t3,t3,0x27
    8000504e:	1e1e                	slli	t3,t3,0x27
    80005050:	1e1e                	slli	t3,t3,0x27
    80005052:	1e1e                	slli	t3,t3,0x27
    80005054:	1e1e                	slli	t3,t3,0x27
    80005056:	1e1e                	slli	t3,t3,0x27
    80005058:	1e1e                	slli	t3,t3,0x27
    8000505a:	1e1e                	slli	t3,t3,0x27
    8000505c:	1e1e                	slli	t3,t3,0x27
    8000505e:	1e1e                	slli	t3,t3,0x27
    80005060:	1e1e                	slli	t3,t3,0x27
    80005062:	1e1e                	slli	t3,t3,0x27
    80005064:	1e1e                	slli	t3,t3,0x27
    80005066:	1e1e                	slli	t3,t3,0x27
    80005068:	1e1e                	slli	t3,t3,0x27
    8000506a:	1e1e                	slli	t3,t3,0x27
    8000506c:	1e1e                	slli	t3,t3,0x27
    8000506e:	1e1e                	slli	t3,t3,0x27
    80005070:	1e1e                	slli	t3,t3,0x27
    80005072:	1e1e                	slli	t3,t3,0x27
    80005074:	1e1e                	slli	t3,t3,0x27
    80005076:	1e1e                	slli	t3,t3,0x27
    80005078:	1e1e                	slli	t3,t3,0x27
    8000507a:	1e1e                	slli	t3,t3,0x27
    8000507c:	1e1e                	slli	t3,t3,0x27
    8000507e:	1e1e                	slli	t3,t3,0x27
    80005080:	1e1e                	slli	t3,t3,0x27
    80005082:	1e1e                	slli	t3,t3,0x27
    80005084:	1e1e                	slli	t3,t3,0x27
    80005086:	1e1e                	slli	t3,t3,0x27
    80005088:	1e1e                	slli	t3,t3,0x27
    8000508a:	1e1e                	slli	t3,t3,0x27
    8000508c:	1e1e                	slli	t3,t3,0x27
    8000508e:	1e1e                	slli	t3,t3,0x27
    80005090:	1e1e                	slli	t3,t3,0x27
    80005092:	1e1e                	slli	t3,t3,0x27
    80005094:	1e1e                	slli	t3,t3,0x27
    80005096:	1e1e                	slli	t3,t3,0x27
    80005098:	1e1e                	slli	t3,t3,0x27
    8000509a:	1e1e                	slli	t3,t3,0x27
    8000509c:	1e1e                	slli	t3,t3,0x27
    8000509e:	1e1e                	slli	t3,t3,0x27
    800050a0:	1e1e                	slli	t3,t3,0x27
    800050a2:	1e1e                	slli	t3,t3,0x27
    800050a4:	1e1e                	slli	t3,t3,0x27
    800050a6:	1e1e                	slli	t3,t3,0x27
    800050a8:	1e1e                	slli	t3,t3,0x27
    800050aa:	1e1e                	slli	t3,t3,0x27
    800050ac:	1e1e                	slli	t3,t3,0x27
    800050ae:	1e1e                	slli	t3,t3,0x27
    800050b0:	1e1e                	slli	t3,t3,0x27
    800050b2:	1e1e                	slli	t3,t3,0x27
    800050b4:	1e1e                	slli	t3,t3,0x27
    800050b6:	1e1e                	slli	t3,t3,0x27
    800050b8:	1e1e                	slli	t3,t3,0x27
    800050ba:	1e1e                	slli	t3,t3,0x27
    800050bc:	1e1e                	slli	t3,t3,0x27
    800050be:	1e1e                	slli	t3,t3,0x27
    800050c0:	1e1e                	slli	t3,t3,0x27
    800050c2:	1e1e                	slli	t3,t3,0x27
    800050c4:	1e1e                	slli	t3,t3,0x27
    800050c6:	1e1e                	slli	t3,t3,0x27
    800050c8:	1e1e                	slli	t3,t3,0x27
    800050ca:	1e1e                	slli	t3,t3,0x27
    800050cc:	1e1e                	slli	t3,t3,0x27
    800050ce:	1e1e                	slli	t3,t3,0x27
    800050d0:	1e1e                	slli	t3,t3,0x27
    800050d2:	1e1e                	slli	t3,t3,0x27
    800050d4:	1e1e                	slli	t3,t3,0x27
    800050d6:	1e1e                	slli	t3,t3,0x27
    800050d8:	1e1e                	slli	t3,t3,0x27
    800050da:	1e1e                	slli	t3,t3,0x27
    800050dc:	1e1e                	slli	t3,t3,0x27
    800050de:	1e1e                	slli	t3,t3,0x27
    800050e0:	1e1e                	slli	t3,t3,0x27
    800050e2:	1e1e                	slli	t3,t3,0x27
    800050e4:	1e1e                	slli	t3,t3,0x27
    800050e6:	1e1e                	slli	t3,t3,0x27
    800050e8:	1e1e                	slli	t3,t3,0x27
    800050ea:	1e1e                	slli	t3,t3,0x27
    800050ec:	1e1e                	slli	t3,t3,0x27
    800050ee:	1e1e                	slli	t3,t3,0x27
    800050f0:	1e1e                	slli	t3,t3,0x27
    800050f2:	1e1e                	slli	t3,t3,0x27
    800050f4:	1e1e                	slli	t3,t3,0x27
    800050f6:	1e1e                	slli	t3,t3,0x27
    800050f8:	1e1e                	slli	t3,t3,0x27
    800050fa:	1e1e                	slli	t3,t3,0x27
    800050fc:	1e1e                	slli	t3,t3,0x27
    800050fe:	1e1e                	slli	t3,t3,0x27
    80005100:	1e1e                	slli	t3,t3,0x27
    80005102:	1e1e                	slli	t3,t3,0x27
    80005104:	1e1e                	slli	t3,t3,0x27
    80005106:	1e1e                	slli	t3,t3,0x27
    80005108:	1e1e                	slli	t3,t3,0x27
    8000510a:	1e1e                	slli	t3,t3,0x27
    8000510c:	1e1e                	slli	t3,t3,0x27
    8000510e:	1e1e                	slli	t3,t3,0x27
    80005110:	1e1e                	slli	t3,t3,0x27
    80005112:	1e1e                	slli	t3,t3,0x27
    80005114:	1e1e                	slli	t3,t3,0x27
    80005116:	1e1e                	slli	t3,t3,0x27
    80005118:	1e1e                	slli	t3,t3,0x27
    8000511a:	1e1e                	slli	t3,t3,0x27
    8000511c:	1e1e                	slli	t3,t3,0x27
    8000511e:	1e1e                	slli	t3,t3,0x27
    80005120:	1e1e                	slli	t3,t3,0x27
    80005122:	1e1e                	slli	t3,t3,0x27
    80005124:	1e1e                	slli	t3,t3,0x27
    80005126:	1e1e                	slli	t3,t3,0x27
    80005128:	1e1e                	slli	t3,t3,0x27
    8000512a:	1e1e                	slli	t3,t3,0x27
    8000512c:	1e1e                	slli	t3,t3,0x27
    8000512e:	1e1e                	slli	t3,t3,0x27
    80005130:	1e1e                	slli	t3,t3,0x27
    80005132:	1e1e                	slli	t3,t3,0x27
    80005134:	1e1e                	slli	t3,t3,0x27
    80005136:	1e1e                	slli	t3,t3,0x27
    80005138:	1e1e                	slli	t3,t3,0x27
    8000513a:	1e1e                	slli	t3,t3,0x27
    8000513c:	1e1e                	slli	t3,t3,0x27
    8000513e:	1e1e                	slli	t3,t3,0x27
    80005140:	1e1e                	slli	t3,t3,0x27
    80005142:	1e1e                	slli	t3,t3,0x27
    80005144:	1e1e                	slli	t3,t3,0x27
    80005146:	1e1e                	slli	t3,t3,0x27
    80005148:	1e1e                	slli	t3,t3,0x27
    8000514a:	1e1e                	slli	t3,t3,0x27
    8000514c:	1e1e                	slli	t3,t3,0x27
    8000514e:	1e1e                	slli	t3,t3,0x27
    80005150:	1e1e                	slli	t3,t3,0x27
    80005152:	1e1e                	slli	t3,t3,0x27
    80005154:	1e1e                	slli	t3,t3,0x27
    80005156:	1e1e                	slli	t3,t3,0x27
    80005158:	1e1e                	slli	t3,t3,0x27
    8000515a:	1e1e                	slli	t3,t3,0x27
    8000515c:	1e1e                	slli	t3,t3,0x27
    8000515e:	1e1e                	slli	t3,t3,0x27
    80005160:	1e1e                	slli	t3,t3,0x27
    80005162:	1e1e                	slli	t3,t3,0x27
    80005164:	1e1e                	slli	t3,t3,0x27
    80005166:	1e1e                	slli	t3,t3,0x27
    80005168:	1e1e                	slli	t3,t3,0x27
    8000516a:	1e1e                	slli	t3,t3,0x27
    8000516c:	1e1e                	slli	t3,t3,0x27
    8000516e:	1e1e                	slli	t3,t3,0x27
    80005170:	1e1e                	slli	t3,t3,0x27
    80005172:	1e1e                	slli	t3,t3,0x27
    80005174:	1e1e                	slli	t3,t3,0x27
    80005176:	1e1e                	slli	t3,t3,0x27
    80005178:	1e1e                	slli	t3,t3,0x27
    8000517a:	1e1e                	slli	t3,t3,0x27
    8000517c:	1e1e                	slli	t3,t3,0x27
    8000517e:	1e1e                	slli	t3,t3,0x27
    80005180:	1e1e                	slli	t3,t3,0x27
    80005182:	1e1e                	slli	t3,t3,0x27
    80005184:	1e1e                	slli	t3,t3,0x27
    80005186:	1e1e                	slli	t3,t3,0x27
    80005188:	1e1e                	slli	t3,t3,0x27
    8000518a:	1e1e                	slli	t3,t3,0x27
    8000518c:	1e1e                	slli	t3,t3,0x27
    8000518e:	1e1e                	slli	t3,t3,0x27
    80005190:	1e1e                	slli	t3,t3,0x27
    80005192:	1e1e                	slli	t3,t3,0x27
    80005194:	1e1e                	slli	t3,t3,0x27
    80005196:	1e1e                	slli	t3,t3,0x27
    80005198:	1e1e                	slli	t3,t3,0x27
    8000519a:	1e1e                	slli	t3,t3,0x27
    8000519c:	1e1e                	slli	t3,t3,0x27
    8000519e:	1e1e                	slli	t3,t3,0x27
    800051a0:	1e1e                	slli	t3,t3,0x27
    800051a2:	1e1e                	slli	t3,t3,0x27
    800051a4:	1e1e                	slli	t3,t3,0x27
    800051a6:	1e1e                	slli	t3,t3,0x27
    800051a8:	1e1e                	slli	t3,t3,0x27
    800051aa:	1e1e                	slli	t3,t3,0x27
    800051ac:	1e1e                	slli	t3,t3,0x27
    800051ae:	1e1e                	slli	t3,t3,0x27
    800051b0:	1e1e                	slli	t3,t3,0x27
    800051b2:	1e1e                	slli	t3,t3,0x27
    800051b4:	1e1e                	slli	t3,t3,0x27
    800051b6:	1e1e                	slli	t3,t3,0x27
    800051b8:	1e1e                	slli	t3,t3,0x27
    800051ba:	1e1e                	slli	t3,t3,0x27
    800051bc:	1e1e                	slli	t3,t3,0x27
    800051be:	1e1e                	slli	t3,t3,0x27
    800051c0:	1e1e                	slli	t3,t3,0x27
    800051c2:	1e1e                	slli	t3,t3,0x27
    800051c4:	1e1e                	slli	t3,t3,0x27
    800051c6:	1e1e                	slli	t3,t3,0x27
    800051c8:	1e1e                	slli	t3,t3,0x27
    800051ca:	1e1e                	slli	t3,t3,0x27
    800051cc:	1e1e                	slli	t3,t3,0x27
    800051ce:	1e1e                	slli	t3,t3,0x27
    800051d0:	1e1e                	slli	t3,t3,0x27
    800051d2:	1e1e                	slli	t3,t3,0x27
    800051d4:	1e1e                	slli	t3,t3,0x27
    800051d6:	1e1e                	slli	t3,t3,0x27
    800051d8:	1e1e                	slli	t3,t3,0x27
    800051da:	1e1e                	slli	t3,t3,0x27
    800051dc:	1e1e                	slli	t3,t3,0x27
    800051de:	1e1e                	slli	t3,t3,0x27
    800051e0:	1e1e                	slli	t3,t3,0x27
    800051e2:	1e1e                	slli	t3,t3,0x27
    800051e4:	1e1e                	slli	t3,t3,0x27
    800051e6:	1e1e                	slli	t3,t3,0x27
    800051e8:	1e1e                	slli	t3,t3,0x27
    800051ea:	1e1e                	slli	t3,t3,0x27
    800051ec:	1e1e                	slli	t3,t3,0x27
    800051ee:	1e1e                	slli	t3,t3,0x27
    800051f0:	1e1e                	slli	t3,t3,0x27
    800051f2:	1e1e                	slli	t3,t3,0x27
    800051f4:	1e1e                	slli	t3,t3,0x27
    800051f6:	1e1e                	slli	t3,t3,0x27
    800051f8:	1e1e                	slli	t3,t3,0x27
    800051fa:	1e1e                	slli	t3,t3,0x27
    800051fc:	1e1e                	slli	t3,t3,0x27
    800051fe:	1e1e                	slli	t3,t3,0x27
    80005200:	1e1e                	slli	t3,t3,0x27
    80005202:	1e1e                	slli	t3,t3,0x27
    80005204:	1e1e                	slli	t3,t3,0x27
    80005206:	1e1e                	slli	t3,t3,0x27
    80005208:	1e1e                	slli	t3,t3,0x27
    8000520a:	1e1e                	slli	t3,t3,0x27
    8000520c:	1e1e                	slli	t3,t3,0x27
    8000520e:	1e1e                	slli	t3,t3,0x27
    80005210:	1e1e                	slli	t3,t3,0x27
    80005212:	1e1e                	slli	t3,t3,0x27
    80005214:	1e1e                	slli	t3,t3,0x27
    80005216:	1e1e                	slli	t3,t3,0x27
    80005218:	1e1e                	slli	t3,t3,0x27
    8000521a:	1e1e                	slli	t3,t3,0x27
    8000521c:	1e1e                	slli	t3,t3,0x27
    8000521e:	1e1e                	slli	t3,t3,0x27
    80005220:	1e1e                	slli	t3,t3,0x27
    80005222:	1e1e                	slli	t3,t3,0x27
    80005224:	1e1e                	slli	t3,t3,0x27
    80005226:	1e1e                	slli	t3,t3,0x27
    80005228:	1e1e                	slli	t3,t3,0x27
    8000522a:	1e1e                	slli	t3,t3,0x27
    8000522c:	1e1e                	slli	t3,t3,0x27
    8000522e:	1e1e                	slli	t3,t3,0x27
    80005230:	1e1e                	slli	t3,t3,0x27
    80005232:	1e1e                	slli	t3,t3,0x27
    80005234:	1e1e                	slli	t3,t3,0x27
    80005236:	1e1e                	slli	t3,t3,0x27
    80005238:	1e1e                	slli	t3,t3,0x27
    8000523a:	1e1e                	slli	t3,t3,0x27
    8000523c:	1e1e                	slli	t3,t3,0x27
    8000523e:	1e1e                	slli	t3,t3,0x27
    80005240:	1e1e                	slli	t3,t3,0x27
    80005242:	1e1e                	slli	t3,t3,0x27
    80005244:	1e1e                	slli	t3,t3,0x27
    80005246:	1e1e                	slli	t3,t3,0x27
    80005248:	1e1e                	slli	t3,t3,0x27
    8000524a:	1e1e                	slli	t3,t3,0x27
    8000524c:	1e1e                	slli	t3,t3,0x27
    8000524e:	1e1e                	slli	t3,t3,0x27
    80005250:	1e1e                	slli	t3,t3,0x27
    80005252:	1e1e                	slli	t3,t3,0x27
    80005254:	1e1e                	slli	t3,t3,0x27
    80005256:	1e1e                	slli	t3,t3,0x27
    80005258:	1e1e                	slli	t3,t3,0x27
    8000525a:	1e1e                	slli	t3,t3,0x27
    8000525c:	1e1e                	slli	t3,t3,0x27
    8000525e:	1e1e                	slli	t3,t3,0x27
    80005260:	1e1e                	slli	t3,t3,0x27
    80005262:	1e1e                	slli	t3,t3,0x27
    80005264:	1e1e                	slli	t3,t3,0x27
    80005266:	1e1e                	slli	t3,t3,0x27
    80005268:	1e1e                	slli	t3,t3,0x27
    8000526a:	1e1e                	slli	t3,t3,0x27
    8000526c:	1e1e                	slli	t3,t3,0x27
    8000526e:	1e1e                	slli	t3,t3,0x27
    80005270:	1e1e                	slli	t3,t3,0x27
    80005272:	1e1e                	slli	t3,t3,0x27
    80005274:	1e1e                	slli	t3,t3,0x27
    80005276:	1e1e                	slli	t3,t3,0x27
    80005278:	1e1e                	slli	t3,t3,0x27
    8000527a:	1e1e                	slli	t3,t3,0x27
    8000527c:	1e1e                	slli	t3,t3,0x27
    8000527e:	1e1e                	slli	t3,t3,0x27

Disassembly of section .parafuzz_secret:

0000000080004000 <secret>:
    80004000:	6564                	ld	s1,200(a0)
    80004002:	6461                	lui	s0,0x18
    80004004:	6562                	ld	a0,24(sp)
    80004006:	6665                	lui	a2,0x19
    80004008:	6920                	ld	s0,80(a0)
    8000400a:	20612073          	csrs	0x206,sp
    8000400e:	616d                	addi	sp,sp,240
    80004010:	20636967          	.4byte	0x20636967
    80004014:	756e                	ld	a0,248(sp)
    80004016:	626d                	lui	tp,0x1b
    80004018:	7265                	lui	tp,0xffff9
    8000401a:	7420                	ld	s0,104(s0)
    8000401c:	6168                	ld	a0,192(a0)
    8000401e:	2074                	fld	fa3,192(s0)
    80004020:	7375                	lui	t1,0xffffd
    80004022:	6465                	lui	s0,0x19
    80004024:	6220                	ld	s0,64(a2)
    80004026:	2079                	.2byte	0x2079
    80004028:	7270                	ld	a2,224(a2)
    8000402a:	7261                	lui	tp,0xffff8
    8000402c:	6661                	lui	a2,0x18
    8000402e:	7a75                	lui	s4,0xffffd
    80004030:	207a                	fld	ft0,408(sp)
    80004032:	6f74                	ld	a3,216(a4)
    80004034:	6420                	ld	s0,72(s0)
    80004036:	7369                	lui	t1,0xffffa
    80004038:	736f6c63          	bltu	t5,s6,80004770 <_parafuzz_secret_end+0x6fb>
    8000403c:	2065                	.2byte	0x2065
    8000403e:	7274                	ld	a3,224(a2)
    80004040:	6e61                	lui	t3,0x18
    80004042:	6e656973          	csrrsi	s2,0x6e6,10
    80004046:	2074                	fld	fa3,192(s0)
    80004048:	7865                	lui	a6,0xffff9
    8000404a:	6365                	lui	t1,0x19
    8000404c:	7475                	lui	s0,0xffffd
    8000404e:	6f69                	lui	t5,0x1a
    80004050:	206e                	fld	ft0,216(sp)
    80004052:	7576                	ld	a0,376(sp)
    80004054:	6e6c                	ld	a1,216(a2)
    80004056:	7265                	lui	tp,0xffff9
    80004058:	6261                	lui	tp,0x18
    8000405a:	6c69                	lui	s8,0x1a
    8000405c:	7469                	lui	s0,0xffffa
    8000405e:	2079                	.2byte	0x2079
    80004060:	6e69                	lui	t3,0x1a
    80004062:	7420                	ld	s0,104(s0)
    80004064:	6568                	ld	a0,200(a0)
    80004066:	7020                	ld	s0,96(s0)
    80004068:	6f72                	ld	t5,280(sp)
    8000406a:	73736563          	bltu	t1,s7,80004794 <_parafuzz_secret_end+0x71f>
    8000406e:	202e726f          	jal	tp,800eb270 <_end+0xe5ff0>
    80004072:	503a                	.2byte	0x503a
    80004074:	00              	Address 0x0000000080004074 is out of bounds.

