
spectre v3.guess101.riscv:     file format elf64 littleriscv
spectre v3.guess101.riscv
architecture: riscv:rv64, flags 0x00000112:
EXEC_P, HAS_SYMS, D_PAGED
start address 0x0000000080000000

Program Header:
0x70000003 off    0x000000000000e287 vaddr 0x0000000000000000 paddr 0x0000000000000000 align 2**0
         filesz 0x00000000000000a4 memsz 0x0000000000000000 flags r  
    LOAD off    0x0000000000001000 vaddr 0x0000000080000000 paddr 0x0000000080000000 align 2**12
         filesz 0x00000000000013c2 memsz 0x00000000000013d8 flags rwx
    LOAD off    0x0000000000003000 vaddr 0x0000000080002000 paddr 0x0000000080002000 align 2**12
         filesz 0x00000000000000f8 memsz 0x00000000000000f8 flags r x
    LOAD off    0x0000000000004000 vaddr 0x0000000080004000 paddr 0x0000000080004000 align 2**12
         filesz 0x0000000000005000 memsz 0x0000000000005000 flags rw 

Sections:
Idx Name          Size      VMA               LMA               File off  Algn
  0 .text.init    000001a8  0000000080000000  0000000080000000  00001000  2**2
                  CONTENTS, ALLOC, LOAD, READONLY, CODE
  1 .text.handle_trap 0000008a  0000000080001000  0000000080001000  00002000  2**1
                  CONTENTS, ALLOC, LOAD, READONLY, CODE
  2 .text.victim  00000088  000000008000108a  000000008000108a  0000208a  2**1
                  CONTENTS, ALLOC, LOAD, READONLY, CODE
  3 .text.main    00000056  0000000080001112  0000000080001112  00002112  2**1
                  CONTENTS, ALLOC, LOAD, READONLY, CODE
  4 .text._init   0000002e  0000000080001168  0000000080001168  00002168  2**1
                  CONTENTS, ALLOC, LOAD, READONLY, CODE
  5 .text.setup   00000042  00000000800011c0  00000000800011c0  000021c0  2**6
                  CONTENTS, ALLOC, LOAD, READONLY, CODE
  6 .text.get_round_info 00000042  0000000080001240  0000000080001240  00002240  2**6
                  CONTENTS, ALLOC, LOAD, READONLY, CODE
  7 .text.dump_channel 00000076  00000000800012c0  00000000800012c0  000022c0  2**6
                  CONTENTS, ALLOC, LOAD, READONLY, CODE
  8 .text.exit    0000003e  0000000080001340  0000000080001340  00002340  2**6
                  CONTENTS, ALLOC, LOAD, READONLY, CODE
  9 .text.setup_pmp 00000042  0000000080001380  0000000080001380  00002380  2**6
                  CONTENTS, ALLOC, LOAD, READONLY, CODE
 10 .sbss         00000010  00000000800013c8  00000000800013c8  000023c2  2**3
                  ALLOC
 11 .parafuzz_leakage 000000c2  0000000080002000  0000000080002000  00003000  2**6
                  CONTENTS, ALLOC, LOAD, READONLY, CODE
 12 .rodata       00000030  00000000800020c8  00000000800020c8  000030c8  2**3
                  CONTENTS, ALLOC, LOAD, READONLY, DATA
 13 .parafuzz_secret 00000008  0000000080004000  0000000080004000  00004000  2**3
                  CONTENTS, ALLOC, LOAD, DATA
 14 .parafuzz_channel 00004000  0000000080005000  0000000080005000  00005000  2**3
                  CONTENTS, ALLOC, LOAD, DATA
 15 .debug_info   00001954  0000000000000000  0000000000000000  00009000  2**0
                  CONTENTS, READONLY, DEBUGGING, OCTETS
 16 .debug_abbrev 0000064b  0000000000000000  0000000000000000  0000a954  2**0
                  CONTENTS, READONLY, DEBUGGING, OCTETS
 17 .debug_aranges 000003c0  0000000000000000  0000000000000000  0000afa0  2**4
                  CONTENTS, READONLY, DEBUGGING, OCTETS
 18 .debug_rnglists 0000039b  0000000000000000  0000000000000000  0000b360  2**0
                  CONTENTS, READONLY, DEBUGGING, OCTETS
 19 .debug_line   0000237d  0000000000000000  0000000000000000  0000b6fb  2**0
                  CONTENTS, READONLY, DEBUGGING, OCTETS
 20 .debug_str    000004cb  0000000000000000  0000000000000000  0000da78  2**0
                  CONTENTS, READONLY, DEBUGGING, OCTETS
 21 .debug_line_str 00000334  0000000000000000  0000000000000000  0000df43  2**0
                  CONTENTS, READONLY, DEBUGGING, OCTETS
 22 .comment      00000010  0000000000000000  0000000000000000  0000e277  2**0
                  CONTENTS, READONLY
 23 .riscv.attributes 000000a4  0000000000000000  0000000000000000  0000e287  2**0
                  CONTENTS, READONLY
 24 .debug_frame  00000980  0000000000000000  0000000000000000  0000e330  2**3
                  CONTENTS, READONLY, DEBUGGING, OCTETS
SYMBOL TABLE:
0000000080000000 l    d  .text.init	0000000000000000 .text.init
0000000080001000 l    d  .text.handle_trap	0000000000000000 .text.handle_trap
000000008000108a l    d  .text.victim	0000000000000000 .text.victim
0000000080001112 l    d  .text.main	0000000000000000 .text.main
0000000080001168 l    d  .text._init	0000000000000000 .text._init
00000000800011c0 l    d  .text.setup	0000000000000000 .text.setup
0000000080001240 l    d  .text.get_round_info	0000000000000000 .text.get_round_info
00000000800012c0 l    d  .text.dump_channel	0000000000000000 .text.dump_channel
0000000080001340 l    d  .text.exit	0000000000000000 .text.exit
0000000080001380 l    d  .text.setup_pmp	0000000000000000 .text.setup_pmp
00000000800013c8 l    d  .sbss	0000000000000000 .sbss
0000000080002000 l    d  .parafuzz_leakage	0000000000000000 .parafuzz_leakage
00000000800020c8 l    d  .rodata	0000000000000000 .rodata
0000000080004000 l    d  .parafuzz_secret	0000000000000000 .parafuzz_secret
0000000080005000 l    d  .parafuzz_channel	0000000000000000 .parafuzz_channel
0000000000000000 l    d  .debug_info	0000000000000000 .debug_info
0000000000000000 l    d  .debug_abbrev	0000000000000000 .debug_abbrev
0000000000000000 l    d  .debug_aranges	0000000000000000 .debug_aranges
0000000000000000 l    d  .debug_rnglists	0000000000000000 .debug_rnglists
0000000000000000 l    d  .debug_line	0000000000000000 .debug_line
0000000000000000 l    d  .debug_str	0000000000000000 .debug_str
0000000000000000 l    d  .debug_line_str	0000000000000000 .debug_line_str
0000000000000000 l    d  .comment	0000000000000000 .comment
0000000000000000 l    d  .riscv.attributes	0000000000000000 .riscv.attributes
0000000000000000 l    d  .debug_frame	0000000000000000 .debug_frame
0000000000000000 l    df *ABS*	0000000000000000 ccqENQlp.o
0000000080000114 l       .text.init	0000000000000000 trap_entry
0000000000000000 l    df *ABS*	0000000000000000 main.c
0000000000000000 l    df *ABS*	0000000000000000 syscalls.c
0000000000000000 l    df *ABS*	0000000000000000 parafuzz.c
0000000080001bc2 g       .text.setup_pmp	0000000000000000 __global_pointer$
000000008000108a g     F .text.victim	0000000000000088 victim
0000000080001000 g     F .text.handle_trap	000000000000008a handle_trap
0000000080001168 g     F .text._init	000000000000002e _init
0000000080001380 g     F .text.setup_pmp	0000000000000038 setup_pmp
0000000080000000 g       .text.init	0000000000000000 _start
0000000080002000 g     F .parafuzz_leakage	0000000000000084 access_time
00000000800013c8 g     O .sbss	0000000000000008 guess
0000000080001240 g     F .text.get_round_info	0000000000000018 get_round_info
00000000800012c0 g     F .text.dump_channel	0000000000000058 dump_channel
00000000800013d0 g     O .sbss	0000000000000008 current_round
0000000080001112 g     F .text.main	0000000000000056 main
00000000800013d8 g     O .parafuzz_leakage	0000000000000000 trapoline
0000000080005000 g     O .parafuzz_channel	0000000000004000 array
00000000800011c0 g     F .text.setup	000000000000001c setup
00000000800013d8 g       .sbss	0000000000000000 _tdata_end
0000000080009000 g       .parafuzz_channel	0000000000000000 _end
00000000800013d8 g       .sbss	0000000000000000 _tdata_begin
0000000080004000 g     O .parafuzz_secret	0000000000000008 secret
0000000080001340 g     F .text.exit	000000000000001c exit
0000000080004008 g       .parafuzz_secret	0000000000000000 _parafuzz_secret_end
00000000800013d8 g       .sbss	0000000000000000 _tbss_end
0000000080004000 g       .parafuzz_secret	0000000000000000 _parafuzz_secret_start



Disassembly of section .text.init:

0000000080000000 <_start :

  .section ".text.init"
  .globl _start
  .option norelax
_start:
  li  x1, 0
    80000000:	    4081                	li	ra,0
  li  x2, 0
    80000002:	    4101                	li	sp,0
  li  x3, 0
    80000004:	    4181                	li	gp,0
  li  x4, 0
    80000006:	    4201                	li	tp,0
  li  x5, 0
    80000008:	    4281                	li	t0,0
  li  x6, 0
    8000000a:	    4301                	li	t1,0
  li  x7, 0
    8000000c:	    4381                	li	t2,0
  li  x8, 0
    8000000e:	    4401                	li	s0,0
  li  x9, 0
    80000010:	    4481                	li	s1,0
  li  x10,0
    80000012:	    4501                	li	a0,0
  li  x11,0
    80000014:	    4581                	li	a1,0
  li  x12,0
    80000016:	    4601                	li	a2,0
  li  x13,0
    80000018:	    4681                	li	a3,0
  li  x14,0
    8000001a:	    4701                	li	a4,0
  li  x15,0
    8000001c:	    4781                	li	a5,0
  li  x16,0
    8000001e:	    4801                	li	a6,0
  li  x17,0
    80000020:	    4881                	li	a7,0
  li  x18,0
    80000022:	    4901                	li	s2,0
  li  x19,0
    80000024:	    4981                	li	s3,0
  li  x20,0
    80000026:	    4a01                	li	s4,0
  li  x21,0
    80000028:	    4a81                	li	s5,0
  li  x22,0
    8000002a:	    4b01                	li	s6,0
  li  x23,0
    8000002c:	    4b81                	li	s7,0
  li  x24,0
    8000002e:	    4c01                	li	s8,0
  li  x25,0
    80000030:	    4c81                	li	s9,0
  li  x26,0
    80000032:	    4d01                	li	s10,0
  li  x27,0
    80000034:	    4d81                	li	s11,0
  li  x28,0
    80000036:	    4e01                	li	t3,0
  li  x29,0
    80000038:	    4e81                	li	t4,0
  li  x30,0
    8000003a:	    4f01                	li	t5,0
  li  x31,0
    8000003c:	    4f81                	li	t6,0

  # enable FPU, vector, and accelerator if present
  li t0, MSTATUS_FS   MSTATUS_XS   MSTATUS_VS
    8000003e:	    62f9                	lui	t0,0x1e
    80000040:	    6002829b          	addiw	t0,t0,1536 # 1e600 <_start 0x7ffe1a00 
  csrs mstatus, t0
    80000044:	    3002a073          	csrs	mstatus,t0

#ifdef __riscv_flen
  # initialize FPU if we have one
  la t0, 1f
    80000048:	    00000297          	auipc	t0,0x0
    8000004c:	    09028293          	addi	t0,t0,144 # 800000d8 <_start+0xd8 
  csrw mtvec, t0
    80000050:	    30529073          	csrw	mtvec,t0

  fssr    x0
    80000054:	    00301073          	fscsr	zero
  fmv.s.x f0, x0
    80000058:	    f0000053          	fmv.w.x	ft0,zero
  fmv.s.x f1, x0
    8000005c:	    f00000d3          	fmv.w.x	ft1,zero
  fmv.s.x f2, x0
    80000060:	    f0000153          	fmv.w.x	ft2,zero
  fmv.s.x f3, x0
    80000064:	    f00001d3          	fmv.w.x	ft3,zero
  fmv.s.x f4, x0
    80000068:	    f0000253          	fmv.w.x	ft4,zero
  fmv.s.x f5, x0
    8000006c:	    f00002d3          	fmv.w.x	ft5,zero
  fmv.s.x f6, x0
    80000070:	    f0000353          	fmv.w.x	ft6,zero
  fmv.s.x f7, x0
    80000074:	    f00003d3          	fmv.w.x	ft7,zero
  fmv.s.x f8, x0
    80000078:	    f0000453          	fmv.w.x	fs0,zero
  fmv.s.x f9, x0
    8000007c:	    f00004d3          	fmv.w.x	fs1,zero
  fmv.s.x f10,x0
    80000080:	    f0000553          	fmv.w.x	fa0,zero
  fmv.s.x f11,x0
    80000084:	    f00005d3          	fmv.w.x	fa1,zero
  fmv.s.x f12,x0
    80000088:	    f0000653          	fmv.w.x	fa2,zero
  fmv.s.x f13,x0
    8000008c:	    f00006d3          	fmv.w.x	fa3,zero
  fmv.s.x f14,x0
    80000090:	    f0000753          	fmv.w.x	fa4,zero
  fmv.s.x f15,x0
    80000094:	    f00007d3          	fmv.w.x	fa5,zero
  fmv.s.x f16,x0
    80000098:	    f0000853          	fmv.w.x	fa6,zero
  fmv.s.x f17,x0
    8000009c:	    f00008d3          	fmv.w.x	fa7,zero
  fmv.s.x f18,x0
    800000a0:	    f0000953          	fmv.w.x	fs2,zero
  fmv.s.x f19,x0
    800000a4:	    f00009d3          	fmv.w.x	fs3,zero
  fmv.s.x f20,x0
    800000a8:	    f0000a53          	fmv.w.x	fs4,zero
  fmv.s.x f21,x0
    800000ac:	    f0000ad3          	fmv.w.x	fs5,zero
  fmv.s.x f22,x0
    800000b0:	    f0000b53          	fmv.w.x	fs6,zero
  fmv.s.x f23,x0
    800000b4:	    f0000bd3          	fmv.w.x	fs7,zero
  fmv.s.x f24,x0
    800000b8:	    f0000c53          	fmv.w.x	fs8,zero
  fmv.s.x f25,x0
    800000bc:	    f0000cd3          	fmv.w.x	fs9,zero
  fmv.s.x f26,x0
    800000c0:	    f0000d53          	fmv.w.x	fs10,zero
  fmv.s.x f27,x0
    800000c4:	    f0000dd3          	fmv.w.x	fs11,zero
  fmv.s.x f28,x0
    800000c8:	    f0000e53          	fmv.w.x	ft8,zero
  fmv.s.x f29,x0
    800000cc:	    f0000ed3          	fmv.w.x	ft9,zero
  fmv.s.x f30,x0
    800000d0:	    f0000f53          	fmv.w.x	ft10,zero
  fmv.s.x f31,x0
    800000d4:	    f0000fd3          	fmv.w.x	ft11,zero
1:
#endif

  # initialize trap vector
  la t0, trap_entry
    800000d8:	    00000297          	auipc	t0,0x0
    800000dc:	    03c28293          	addi	t0,t0,60 # 80000114 <trap_entry 
  csrw mtvec, t0
    800000e0:	    30529073          	csrw	mtvec,t0

  # initialize global pointer
.option push
.option norelax
  la gp, __global_pointer$
    800000e4:	    00002197          	auipc	gp,0x2
    800000e8:	    ade18193          	addi	gp,gp, 1314 # 80001bc2 <__global_pointer$ 
.option pop

  la  tp, _end + 63
    800000ec:	    00009217          	auipc	tp,0x9
    800000f0:	    f5320213          	addi	tp,tp, 173 # 8000903f <_end+0x3f 
  and tp, tp,  64
    800000f4:	    fc027213          	andi	tp,tp, 64

  # get core id
  csrr a0, mhartid
    800000f8:	    f1402573          	csrr	a0,mhartid
  # for now, assume only 1 core
  li a1, 1
    800000fc:	    4585                	li	a1,1
1:bgeu a0, a1, 1b
    800000fe:	/   00b57063          	bgeu	a0,a1,800000fe <_start+0xfe 

  # give each core 128KB of stack + TLS
#define STKSHIFT 17
  add sp, a0, 1
    80000102:	    00150113          	addi	sp,a0,1
  sll sp, sp, STKSHIFT
    80000106:	    0146                	slli	sp,sp,0x11
  add sp, sp, tp
    80000108:	    9112                	add	sp,sp,tp
  sll a2, a0, STKSHIFT
    8000010a:	    01151613          	slli	a2,a0,0x11
  add tp, tp, a2
    8000010e:	    9232                	add	tp,tp,a2

  j _init
    80000110:	    0580106f          	j	80001168 <_init 

0000000080000114 <trap_entry :

  .align 2
trap_entry:
  addi sp, sp,  272
    80000114:	716d                	addi	sp,sp, 272

  SREG x1, 1*REGBYTES(sp)
    80000116:	e406                	sd	ra,8(sp)
  SREG x2, 2*REGBYTES(sp)
    80000118:	e80a                	sd	sp,16(sp)
  SREG x3, 3*REGBYTES(sp)
    8000011a:	ec0e                	sd	gp,24(sp)
  SREG x4, 4*REGBYTES(sp)
    8000011c:	f012                	sd	tp,32(sp)
  SREG x5, 5*REGBYTES(sp)
    8000011e:	f416                	sd	t0,40(sp)
  SREG x6, 6*REGBYTES(sp)
    80000120:	f81a                	sd	t1,48(sp)
  SREG x7, 7*REGBYTES(sp)
    80000122:	fc1e                	sd	t2,56(sp)
  SREG x8, 8*REGBYTES(sp)
    80000124:	e0a2                	sd	s0,64(sp)
  SREG x9, 9*REGBYTES(sp)
    80000126:	e4a6                	sd	s1,72(sp)
  SREG x10, 10*REGBYTES(sp)
    80000128:	e8aa                	sd	a0,80(sp)
  SREG x11, 11*REGBYTES(sp)
    8000012a:	ecae                	sd	a1,88(sp)
  SREG x12, 12*REGBYTES(sp)
    8000012c:	f0b2                	sd	a2,96(sp)
  SREG x13, 13*REGBYTES(sp)
    8000012e:	f4b6                	sd	a3,104(sp)
  SREG x14, 14*REGBYTES(sp)
    80000130:	f8ba                	sd	a4,112(sp)
  SREG x15, 15*REGBYTES(sp)
    80000132:	fcbe                	sd	a5,120(sp)
  SREG x16, 16*REGBYTES(sp)
    80000134:	e142                	sd	a6,128(sp)
  SREG x17, 17*REGBYTES(sp)
    80000136:	e546                	sd	a7,136(sp)
  SREG x18, 18*REGBYTES(sp)
    80000138:	e94a                	sd	s2,144(sp)
  SREG x19, 19*REGBYTES(sp)
    8000013a:	ed4e                	sd	s3,152(sp)
  SREG x20, 20*REGBYTES(sp)
    8000013c:	f152                	sd	s4,160(sp)
  SREG x21, 21*REGBYTES(sp)
    8000013e:	f556                	sd	s5,168(sp)
  SREG x22, 22*REGBYTES(sp)
    80000140:	f95a                	sd	s6,176(sp)
  SREG x23, 23*REGBYTES(sp)
    80000142:	fd5e                	sd	s7,184(sp)
  SREG x24, 24*REGBYTES(sp)
    80000144:	e1e2                	sd	s8,192(sp)
  SREG x25, 25*REGBYTES(sp)
    80000146:	e5e6                	sd	s9,200(sp)
  SREG x26, 26*REGBYTES(sp)
    80000148:	e9ea                	sd	s10,208(sp)
  SREG x27, 27*REGBYTES(sp)
    8000014a:	edee                	sd	s11,216(sp)
  SREG x28, 28*REGBYTES(sp)
    8000014c:	f1f2                	sd	t3,224(sp)
  SREG x29, 29*REGBYTES(sp)
    8000014e:	f5f6                	sd	t4,232(sp)
  SREG x30, 30*REGBYTES(sp)
    80000150:	f9fa                	sd	t5,240(sp)
  SREG x31, 31*REGBYTES(sp)
    80000152:	fdfe                	sd	t6,248(sp)

  csrr a0, mcause
    80000154:	34202573          	csrr	a0,mcause
  csrr a1, mepc
    80000158:	341025f3          	csrr	a1,mepc
  mv a2, sp
    8000015c:	860a                	mv	a2,sp
  jal handle_trap
    8000015e:	6a3000ef          	jal	ra,80001000 <handle_trap 

  LREG x1, 1*REGBYTES(sp)
    80000162:	60a2                	ld	ra,8(sp)
  LREG x2, 2*REGBYTES(sp)
    80000164:	6142                	ld	sp,16(sp)
  LREG x3, 3*REGBYTES(sp)
    80000166:	61e2                	ld	gp,24(sp)
  LREG x4, 4*REGBYTES(sp)
    80000168:	7202                	ld	tp,32(sp)
  LREG x5, 5*REGBYTES(sp)
    8000016a:	72a2                	ld	t0,40(sp)
  LREG x6, 6*REGBYTES(sp)
    8000016c:	7342                	ld	t1,48(sp)
  LREG x7, 7*REGBYTES(sp)
    8000016e:	73e2                	ld	t2,56(sp)
  LREG x8, 8*REGBYTES(sp)
    80000170:	6406                	ld	s0,64(sp)
  LREG x9, 9*REGBYTES(sp)
    80000172:	64a6                	ld	s1,72(sp)
  LREG x10, 10*REGBYTES(sp)
    80000174:	6546                	ld	a0,80(sp)
  LREG x11, 11*REGBYTES(sp)
    80000176:	65e6                	ld	a1,88(sp)
  LREG x12, 12*REGBYTES(sp)
    80000178:	7606                	ld	a2,96(sp)
  LREG x13, 13*REGBYTES(sp)
    8000017a:	76a6                	ld	a3,104(sp)
  LREG x14, 14*REGBYTES(sp)
    8000017c:	7746                	ld	a4,112(sp)
  LREG x15, 15*REGBYTES(sp)
    8000017e:	77e6                	ld	a5,120(sp)
  LREG x16, 16*REGBYTES(sp)
    80000180:	680a                	ld	a6,128(sp)
  LREG x17, 17*REGBYTES(sp)
    80000182:	68aa                	ld	a7,136(sp)
  LREG x18, 18*REGBYTES(sp)
    80000184:	694a                	ld	s2,144(sp)
  LREG x19, 19*REGBYTES(sp)
    80000186:	69ea                	ld	s3,152(sp)
  LREG x20, 20*REGBYTES(sp)
    80000188:	7a0a                	ld	s4,160(sp)
  LREG x21, 21*REGBYTES(sp)
    8000018a:	7aaa                	ld	s5,168(sp)
  LREG x22, 22*REGBYTES(sp)
    8000018c:	7b4a                	ld	s6,176(sp)
  LREG x23, 23*REGBYTES(sp)
    8000018e:	7bea                	ld	s7,184(sp)
  LREG x24, 24*REGBYTES(sp)
    80000190:	6c0e                	ld	s8,192(sp)
  LREG x25, 25*REGBYTES(sp)
    80000192:	6cae                	ld	s9,200(sp)
  LREG x26, 26*REGBYTES(sp)
    80000194:	6d4e                	ld	s10,208(sp)
  LREG x27, 27*REGBYTES(sp)
    80000196:	6dee                	ld	s11,216(sp)
  LREG x28, 28*REGBYTES(sp)
    80000198:	7e0e                	ld	t3,224(sp)
  LREG x29, 29*REGBYTES(sp)
    8000019a:	7eae                	ld	t4,232(sp)
  LREG x30, 30*REGBYTES(sp)
    8000019c:	7f4e                	ld	t5,240(sp)
  LREG x31, 31*REGBYTES(sp)
    8000019e:	7fee                	ld	t6,248(sp)

  addi sp, sp, 272
    800001a0:	6151                	addi	sp,sp,272
  mret
    800001a2:	30200073          	mret
    800001a6:	0001                	nop

Disassembly of section .text.handle_trap:

0000000080001000 <handle_trap :
#include "parafuzz.h"
#include "boom_conf.h"

PARAFUZZ_DEFINE;

void handle_trap(uintptr_t cause, uintptr_t epc, uintptr_t regs[32]) {
    80001000:	       7139                	addi	sp,sp, 64
    80001002:	       fc06                	sd	ra,56(sp)
    80001004:	       f822                	sd	s0,48(sp)
    80001006:	       0080                	addi	s0,sp,64
    80001008:	       fca43c23          	sd	a0, 40(s0)
    8000100c:	       fcb43823          	sd	a1, 48(s0)
    80001010:	       fcc43423          	sd	a2, 56(s0)
  INFO_VCTM_END;
    80001014:	       0ff0000f          	fence
    80001018:	       00102013          	slti	zero,zero,1
  if (cause == CAUSE_LOAD_ACCESS   
    8000101c:	       fd843703          	ld	a4, 40(s0)
    80001020:	       4795                	li	a5,5
    80001022:	   /   00f70c63          	beq	a4,a5,8000103a <handle_trap+0x3a 
    80001026:	       fd843703          	ld	a4, 40(s0)
    8000102a:	       479d                	li	a5,7
    8000102c:	   +   00f70763          	beq	a4,a5,8000103a <handle_trap+0x3a 
      cause == CAUSE_STORE_ACCESS   
    80001030:	       fd843703          	ld	a4, 40(s0)
    80001034:	       4785                	li	a5,1
    80001036:	/      04f71663          	bne	a4,a5,80001082 <handle_trap+0x82 
      cause == CAUSE_FETCH_ACCESS) {
    // printf("xcpt: %lx %lx  n", epc, read_csr(mtval));
    uint64_t res = access_time(&array[0], guess, 0);
    8000103a:	       00000797          	auipc	a5,0x0
    8000103e:	       38e78793          	addi	a5,a5,910 # 800013c8 <guess 
    80001042:	       639c                	ld	a5,0(a5)
    80001044:	       2781                	sext.w	a5,a5
    80001046:	       4601                	li	a2,0
    80001048:	       85be                	mv	a1,a5
    8000104a:	       00004517          	auipc	a0,0x4
    8000104e:	       fb650513          	addi	a0,a0, 74 # 80005000 <array 
    80001052:	       7af000ef          	jal	ra,80002000 <access_time 
    80001056:	       fea43423          	sd	a0, 24(s0)
    dump_channel(res, &array[0] + guess*CACHE_BLOCK);
    8000105a:	       00000797          	auipc	a5,0x0
    8000105e:	       36e78793          	addi	a5,a5,878 # 800013c8 <guess 
    80001062:	       639c                	ld	a5,0(a5)
    80001064:	       00679713          	slli	a4,a5,0x6
    80001068:	       00004797          	auipc	a5,0x4
    8000106c:	       f9878793          	addi	a5,a5, 104 # 80005000 <array 
    80001070:	       97ba                	add	a5,a5,a4
    80001072:	       85be                	mv	a1,a5
    80001074:	       fe843503          	ld	a0, 24(s0)
    80001078:	       248000ef          	jal	ra,800012c0 <dump_channel 
    exit(0);
    8000107c:	       4501                	li	a0,0
    8000107e:	       2c2000ef          	jal	ra,80001340 <exit 
  }
  else {
    exit(1337);
    80001082:	       53900513          	li	a0,1337
    80001086:	       2ba000ef          	jal	ra,80001340 <exit 

Disassembly of section .text.victim:

000000008000108a <victim :
  }
}

void victim(int64_t offset) {
    8000108a:	7139                	addi	sp,sp, 64
    8000108c:	fc22                	sd	s0,56(sp)
    8000108e:	0080                	addi	s0,sp,64
    80001090:	fca43423          	sd	a0, 56(s0)
  INFO_VCTM_START;
    80001094:	00002013          	slti	zero,zero,0
  
  uint64_t dummy1 = 0xa234b057963aef89ul;
    80001098:	50618793          	addi	a5,gp,1286 # 800020c8 <access_time+0xc8 
    8000109c:	639c                	ld	a5,0(a5)
    8000109e:	fef43423          	sd	a5, 24(s0)
  uint64_t dummy2 = 0x56fea3467def0136ul;
    800010a2:	50e18793          	addi	a5,gp,1294 # 800020d0 <access_time+0xd0 
    800010a6:	639c                	ld	a5,0(a5)
    800010a8:	fef43023          	sd	a5, 32(s0)

  INFO_DELAY_START;
    800010ac:	00202013          	slti	zero,zero,2
  asm("fcvt.s.lu	fa4, %[dummy1] n"
    800010b0:	fe843703          	ld	a4, 24(s0)
    800010b4:	fe043783          	ld	a5, 32(s0)
    800010b8:	d0377753          	fcvt.s.lu	fa4,a4
    800010bc:	d037f7d3          	fcvt.s.lu	fa5,a5
    800010c0:	18e7f7d3          	fdiv.s	fa5,fa5,fa4
    800010c4:	18e7f7d3          	fdiv.s	fa5,fa5,fa4
    800010c8:	18e7f7d3          	fdiv.s	fa5,fa5,fa4
    800010cc:	18e7f7d3          	fdiv.s	fa5,fa5,fa4
    800010d0:	c03797d3          	fcvt.lu.s	a5,fa5,rtz
    800010d4:	fef43023          	sd	a5, 32(s0)
      "fdiv.s	fa5, fa5, fa4 n"
      "fcvt.lu.s	%[dummy2], fa5, rtz n"
      : [dummy2] "+r" (dummy2)
      : [dummy1] "r" (dummy1)
      : "fa4", "fa5");
  INFO_DELAY_END;
    800010d8:	00302013          	slti	zero,zero,3

    leak_me:
      INFO_TEXE_START;
    800010dc:	00402013          	slti	zero,zero,4
      uint8_t dummy3 = array[secret[LEAK_TARGET]*CACHE_BLOCK];
    800010e0:	00003797          	auipc	a5,0x3
    800010e4:	f2078793          	addi	a5,a5, 224 # 80004000 <secret 
    800010e8:	0017c783          	lbu	a5,1(a5)
    800010ec:	2781                	sext.w	a5,a5
    800010ee:	0067979b          	slliw	a5,a5,0x6
    800010f2:	2781                	sext.w	a5,a5
    800010f4:	00004717          	auipc	a4,0x4
    800010f8:	f0c70713          	addi	a4,a4, 244 # 80005000 <array 
    800010fc:	97ba                	add	a5,a5,a4
    800010fe:	0007c783          	lbu	a5,0(a5)
    80001102:	fcf40fa3          	sb	a5, 33(s0)
      INFO_TEXE_END;
    80001106:	00502013          	slti	zero,zero,5
}
    8000110a:	0001                	nop
    8000110c:	7462                	ld	s0,56(sp)
    8000110e:	6121                	addi	sp,sp,64
    80001110:	8082                	ret

Disassembly of section .text.main:

0000000080001112 <main :

int main(int argc, char* argv[] ) {
    80001112:	7179                	addi	sp,sp, 48
    80001114:	f406                	sd	ra,40(sp)
    80001116:	f022                	sd	s0,32(sp)
    80001118:	1800                	addi	s0,sp,48
    8000111a:	87aa                	mv	a5,a0
    8000111c:	fcb43823          	sd	a1, 48(s0)
    80001120:	fcf42e23          	sw	a5, 36(s0)
  setup();
    80001124:	09c000ef          	jal	ra,800011c0 <setup 
  guess = get_round_info();
    80001128:	118000ef          	jal	ra,80001240 <get_round_info 
    8000112c:	872a                	mv	a4,a0
    8000112e:	00000797          	auipc	a5,0x0
    80001132:	29a78793          	addi	a5,a5,666 # 800013c8 <guess 
    80001136:	e398                	sd	a4,0(a5)

  setup_pmp();
    80001138:	248000ef          	jal	ra,80001380 <setup_pmp 

  int64_t secret_offset = (unsigned char*)&secret[LEAK_TARGET]   (unsigned char*)&trapoline;
    8000113c:	00003717          	auipc	a4,0x3
    80001140:	ec570713          	addi	a4,a4, 315 # 80004001 <secret+0x1 
    80001144:	00000797          	auipc	a5,0x0
    80001148:	29478793          	addi	a5,a5,660 # 800013d8 <trapoline 
    8000114c:	40f707b3          	sub	a5,a4,a5
    80001150:	fef43423          	sd	a5, 24(s0)
  victim(secret_offset);
    80001154:	fe843503          	ld	a0, 24(s0)
    80001158:	f33ff0ef          	jal	ra,8000108a <victim 

  return 0;
    8000115c:	4781                	li	a5,0
}
    8000115e:	853e                	mv	a0,a5
    80001160:	70a2                	ld	ra,40(sp)
    80001162:	7402                	ld	s0,32(sp)
    80001164:	6145                	addi	sp,sp,48
    80001166:	8082                	ret

Disassembly of section .text._init:

0000000080001168 <_init :
  printstr("Implement main(), foo! n");
  return  1;
}

void _init(int cid, int nc)
{
    80001168:	7179                	addi	sp,sp, 48
    8000116a:	f406                	sd	ra,40(sp)
    8000116c:	f022                	sd	s0,32(sp)
    8000116e:	1800                	addi	s0,sp,48
    80001170:	87aa                	mv	a5,a0
    80001172:	872e                	mv	a4,a1
    80001174:	fcf42e23          	sw	a5, 36(s0)
    80001178:	87ba                	mv	a5,a4
    8000117a:	fcf42c23          	sw	a5, 40(s0)

  int ret = main(0, 0);
    8000117e:	4581                	li	a1,0
    80001180:	4501                	li	a0,0
    80001182:	f91ff0ef          	jal	ra,80001112 <main 
    80001186:	87aa                	mv	a5,a0
    80001188:	fef42623          	sw	a5, 20(s0)

  exit(ret);
    8000118c:	fec42783          	lw	a5, 20(s0)
    80001190:	853e                	mv	a0,a5
    80001192:	1ae000ef          	jal	ra,80001340 <exit 

Disassembly of section .text.setup:

00000000800011c0 <setup :
    *state_ptr = GUESS_START;
  }
  current_round = *state_ptr;
}

void setup() {
    800011c0:	1141                	addi	sp,sp, 16
    800011c2:	e422                	sd	s0,8(sp)
    800011c4:	0800                	addi	s0,sp,16
  current_round = GUESS_TARGET;
    800011c6:	00000797          	auipc	a5,0x0
    800011ca:	20a78793          	addi	a5,a5,522 # 800013d0 <current_round 
    800011ce:	06500713          	li	a4,101
    800011d2:	e398                	sd	a4,0(a5)
}
    800011d4:	0001                	nop
    800011d6:	6422                	ld	s0,8(sp)
    800011d8:	0141                	addi	sp,sp,16
    800011da:	8082                	ret
    800011dc:	0000                	unimp
    800011de:	0000                	unimp
    800011e0:	0000                	unimp
    800011e2:	0000                	unimp
    800011e4:	0000                	unimp
    800011e6:	0000                	unimp
    800011e8:	0000                	unimp
    800011ea:	0000                	unimp
    800011ec:	0000                	unimp
    800011ee:	0000                	unimp
    800011f0:	0000                	unimp
    800011f2:	0000                	unimp
    800011f4:	0000                	unimp
    800011f6:	0000                	unimp
    800011f8:	0000                	unimp
    800011fa:	0000                	unimp
    800011fc:	0000                	unimp
    800011fe:	0000                	unimp
    80001200:	0000                	unimp

Disassembly of section .text.get_round_info:

0000000080001240 <get_round_info :

uint64_t get_round_info() {
    80001240:	1141                	addi	sp,sp, 16
    80001242:	e422                	sd	s0,8(sp)
    80001244:	0800                	addi	s0,sp,16
  return current_round;
    80001246:	00000797          	auipc	a5,0x0
    8000124a:	18a78793          	addi	a5,a5,394 # 800013d0 <current_round 
    8000124e:	639c                	ld	a5,0(a5)
}
    80001250:	853e                	mv	a0,a5
    80001252:	6422                	ld	s0,8(sp)
    80001254:	0141                	addi	sp,sp,16
    80001256:	8082                	ret
    80001258:	0000                	unimp
    8000125a:	0000                	unimp
    8000125c:	0000                	unimp
    8000125e:	0000                	unimp
    80001260:	0000                	unimp
    80001262:	0000                	unimp
    80001264:	0000                	unimp
    80001266:	0000                	unimp
    80001268:	0000                	unimp
    8000126a:	0000                	unimp
    8000126c:	0000                	unimp
    8000126e:	0000                	unimp
    80001270:	0000                	unimp
    80001272:	0000                	unimp
    80001274:	0000                	unimp
    80001276:	0000                	unimp
    80001278:	0000                	unimp
    8000127a:	0000                	unimp
    8000127c:	0000                	unimp
    8000127e:	0000                	unimp
    80001280:	0000                	unimp

Disassembly of section .text.dump_channel:

00000000800012c0 <dump_channel :

void dump_channel(uint64_t time, uint8_t* addr) {
    800012c0:	1101                	addi	sp,sp, 32
    800012c2:	ec22                	sd	s0,24(sp)
    800012c4:	1000                	addi	s0,sp,32
    800012c6:	fea43423          	sd	a0, 24(s0)
    800012ca:	feb43023          	sd	a1, 32(s0)
  asm volatile(
    800012ce:	00000797          	auipc	a5,0x0
    800012d2:	10278793          	addi	a5,a5,258 # 800013d0 <current_round 
    800012d6:	638c                	ld	a1,0(a5)
    800012d8:	51618793          	addi	a5,gp,1302 # 800020d8 <access_time+0xd8 
    800012dc:	639c                	ld	a5,0(a5)
    800012de:	51e18713          	addi	a4,gp,1310 # 800020e0 <access_time+0xe0 
    800012e2:	6318                	ld	a4,0(a4)
    800012e4:	52618693          	addi	a3,gp,1318 # 800020e8 <access_time+0xe8 
    800012e8:	6294                	ld	a3,0(a3)
    800012ea:	fe843603          	ld	a2, 24(s0)
    800012ee:	fe043503          	ld	a0, 32(s0)
    800012f2:	4829                	li	a6,10
    800012f4:	80071073          	csrw	0x800,a4
    800012f8:	80051073          	csrw	0x800,a0
    800012fc:	80079073          	csrw	0x800,a5
    80001300:	80059073          	csrw	0x800,a1
    80001304:	80061073          	csrw	0x800,a2
    80001308:	80069073          	csrw	0x800,a3
    8000130c:	80081073          	csrw	0x800,a6
      [time] "r" (time),
      [guess] "r" (current_round),
      [addr] "r" (addr),
      [done] "r" (' n')
  );
}
    80001310:	0001                	nop
    80001312:	6462                	ld	s0,24(sp)
    80001314:	6105                	addi	sp,sp,32
    80001316:	8082                	ret
    80001318:	0000                	unimp
    8000131a:	0000                	unimp
    8000131c:	0000                	unimp
    8000131e:	0000                	unimp
    80001320:	0000                	unimp
    80001322:	0000                	unimp
    80001324:	0000                	unimp
    80001326:	0000                	unimp
    80001328:	0000                	unimp
    8000132a:	0000                	unimp
    8000132c:	0000                	unimp
    8000132e:	0000                	unimp
    80001330:	0000                	unimp
    80001332:	0000                	unimp
    80001334:	0000                	unimp

Disassembly of section .text.exit:

0000000080001340 <exit :
    *state_ptr = *state_ptr + 1;
    *reset_ptr = 50;
  }
}

void exit(int code) {
    80001340:	1101                	addi	sp,sp, 32
    80001342:	ec22                	sd	s0,24(sp)
    80001344:	1000                	addi	s0,sp,32
    80001346:	87aa                	mv	a5,a0
    80001348:	fef42623          	sw	a5, 20(s0)
  asm volatile(
    "csrw 0x800, %[stop] n"
    : :
      [stop] "r" (CMD_POWER_OFF   code)
    8000134c:	fec42703          	lw	a4, 20(s0)
    80001350:	52e18793          	addi	a5,gp,1326 # 800020f0 <access_time+0xf0 
    80001354:	639c                	ld	a5,0(a5)
    80001356:	8fd9                	or	a5,a5,a4
  asm volatile(
    80001358:	80079073          	csrw	0x800,a5
    8000135c:	0000                	unimp
    8000135e:	0000                	unimp
    80001360:	0000                	unimp
    80001362:	0000                	unimp
    80001364:	0000                	unimp
    80001366:	0000                	unimp
    80001368:	0000                	unimp
    8000136a:	0000                	unimp
    8000136c:	0000                	unimp
    8000136e:	0000                	unimp
    80001370:	0000                	unimp
    80001372:	0000                	unimp
    80001374:	0000                	unimp
    80001376:	0000                	unimp
    80001378:	0000                	unimp
    8000137a:	0000                	unimp
    8000137c:	0000                	unimp

Disassembly of section .text.setup_pmp:

0000000080001380 <setup_pmp :
  //     time2 time1);

  return time2 time1;
}

void setup_pmp() {
    80001380:	1101                	addi	sp,sp, 32
    80001382:	ec22                	sd	s0,24(sp)
    80001384:	1000                	addi	s0,sp,32
  uintptr_t cfg0, addr0;
  addr0 = ((uintptr_t) _parafuzz_secret_start   (0x1000   1))    2;
    80001386:	00003797          	auipc	a5,0x3
    8000138a:	c7a78793          	addi	a5,a5, 902 # 80004000 <secret 
    8000138e:	8389                	srli	a5,a5,0x2
    80001390:	3ff7e793          	ori	a5,a5,1023
    80001394:	fef43423          	sd	a5, 24(s0)
  write_csr(pmpaddr0, addr0);
    80001398:	fe843783          	ld	a5, 24(s0)
    8000139c:	3b079073          	csrw	pmpaddr0,a5
  cfg0 = PMP_NAPOT   PMP_L;
    800013a0:	09800793          	li	a5,152
    800013a4:	fef43023          	sd	a5, 32(s0)
  write_csr(pmpcfg0, cfg0);
    800013a8:	fe043783          	ld	a5, 32(s0)
    800013ac:	3a079073          	csrw	pmpcfg0,a5
}
    800013b0:	0001                	nop
    800013b2:	6462                	ld	s0,24(sp)
    800013b4:	6105                	addi	sp,sp,32
    800013b6:	8082                	ret
    800013b8:	0000                	unimp
    800013ba:	0000                	unimp
    800013bc:	0000                	unimp
    800013be:	0000                	unimp
    800013c0:	0000                	unimp

Disassembly of section .parafuzz_leakage:

0000000080002000 <access_time :
uint64_t access_time(uint8_t* base, int index, int offset) {
    80002000:	715d                	addi	sp,sp, 80
    80002002:	e4a2                	sd	s0,72(sp)
    80002004:	0880                	addi	s0,sp,80
    80002006:	faa43c23          	sd	a0, 72(s0)
    8000200a:	87ae                	mv	a5,a1
    8000200c:	8732                	mv	a4,a2
    8000200e:	faf42a23          	sw	a5, 76(s0)
    80002012:	87ba                	mv	a5,a4
    80002014:	faf42823          	sw	a5, 80(s0)
  INFO_LEAK_START;
    80002018:	00602013          	slti	zero,zero,6
  uint64_t time1 = 0, time2;
    8000201c:	fe043423          	sd	zero, 24(s0)
  uint8_t *addr = base + index*CACHE_BLOCK + offset;
    80002020:	fb442783          	lw	a5, 76(s0)
    80002024:	0067979b          	slliw	a5,a5,0x6
    80002028:	2781                	sext.w	a5,a5
    8000202a:	873e                	mv	a4,a5
    8000202c:	fb042783          	lw	a5, 80(s0)
    80002030:	97ba                	add	a5,a5,a4
    80002032:	fb843703          	ld	a4, 72(s0)
    80002036:	97ba                	add	a5,a5,a4
    80002038:	fef43023          	sd	a5, 32(s0)
  int junk = 0;
    8000203c:	fc042e23          	sw	zero, 36(s0)
  time1 = read_csr(mcycle);
    80002040:	b00027f3          	csrr	a5,mcycle
    80002044:	fcf43823          	sd	a5, 48(s0)
    80002048:	fd043783          	ld	a5, 48(s0)
    8000204c:	fef43423          	sd	a5, 24(s0)
  junk = *(addr);
    80002050:	fe043783          	ld	a5, 32(s0)
    80002054:	0007c783          	lbu	a5,0(a5)
    80002058:	fcf42e23          	sw	a5, 36(s0)
  time2 = read_csr(mcycle);
    8000205c:	b00027f3          	csrr	a5,mcycle
    80002060:	fcf43423          	sd	a5, 56(s0)
    80002064:	fc843783          	ld	a5, 56(s0)
    80002068:	fcf43023          	sd	a5, 64(s0)
  INFO_LEAK_END;
    8000206c:	00702013          	slti	zero,zero,7
  return time2 time1;
    80002070:	fc043703          	ld	a4, 64(s0)
    80002074:	fe843783          	ld	a5, 24(s0)
    80002078:	40f707b3          	sub	a5,a4,a5
}
    8000207c:	853e                	mv	a0,a5
    8000207e:	6426                	ld	s0,72(sp)
    80002080:	6161                	addi	sp,sp,80
    80002082:	8082                	ret
    80002084:	0000                	unimp
    80002086:	0000                	unimp
    80002088:	0000                	unimp
    8000208a:	0000                	unimp
    8000208c:	0000                	unimp
    8000208e:	0000                	unimp
    80002090:	0000                	unimp
    80002092:	0000                	unimp
    80002094:	0000                	unimp
    80002096:	0000                	unimp
    80002098:	0000                	unimp
    8000209a:	0000                	unimp
    8000209c:	0000                	unimp
    8000209e:	0000                	unimp
    800020a0:	0000                	unimp
    800020a2:	0000                	unimp
    800020a4:	0000                	unimp
    800020a6:	0000                	unimp
    800020a8:	0000                	unimp
    800020aa:	0000                	unimp
    800020ac:	0000                	unimp
    800020ae:	0000                	unimp
    800020b0:	0000                	unimp
    800020b2:	0000                	unimp
    800020b4:	0000                	unimp
    800020b6:	0000                	unimp
    800020b8:	0000                	unimp
    800020ba:	0000                	unimp
    800020bc:	0000                	unimp
    800020be:	0000                	unimp
    800020c0:	0000                	unimp

Disassembly of section .parafuzz_secret:

0000000080004000 <secret :
    80004000:	6564                	ld	s1,200(a0)
    80004002:	6461                	lui	s0,0x18
    80004004:	6562                	ld	a0,24(sp)
    80004006:	6665                	lui	a2,0x19

Disassembly of section .parafuzz_channel:

0000000080005000 <array :
    80005000:	1e1e                	slli	t3,t3,0x27
    80005002:	1e1e                	slli	t3,t3,0x27
    80005004:	1e1e                	slli	t3,t3,0x27
    80005006:	1e1e                	slli	t3,t3,0x27
    80005008:	1e1e                	slli	t3,t3,0x27
    8000500a:	1e1e                	slli	t3,t3,0x27
    8000500c:	1e1e                	slli	t3,t3,0x27
    8000500e:	1e1e                	slli	t3,t3,0x27
    80005010:	1e1e                	slli	t3,t3,0x27
    80005012:	1e1e                	slli	t3,t3,0x27
    80005014:	1e1e                	slli	t3,t3,0x27
    80005016:	1e1e                	slli	t3,t3,0x27
    80005018:	1e1e                	slli	t3,t3,0x27
    8000501a:	1e1e                	slli	t3,t3,0x27
    8000501c:	1e1e                	slli	t3,t3,0x27
    8000501e:	1e1e                	slli	t3,t3,0x27
    80005020:	1e1e                	slli	t3,t3,0x27
    80005022:	1e1e                	slli	t3,t3,0x27
    80005024:	1e1e                	slli	t3,t3,0x27
    80005026:	1e1e                	slli	t3,t3,0x27
    80005028:	1e1e                	slli	t3,t3,0x27
    8000502a:	1e1e                	slli	t3,t3,0x27
    8000502c:	1e1e                	slli	t3,t3,0x27
    8000502e:	1e1e                	slli	t3,t3,0x27
    80005030:	1e1e                	slli	t3,t3,0x27
    80005032:	1e1e                	slli	t3,t3,0x27
    80005034:	1e1e                	slli	t3,t3,0x27
    80005036:	1e1e                	slli	t3,t3,0x27
    80005038:	1e1e                	slli	t3,t3,0x27
    8000503a:	1e1e                	slli	t3,t3,0x27
    8000503c:	1e1e                	slli	t3,t3,0x27
    8000503e:	1e1e                	slli	t3,t3,0x27
    80005040:	1e1e                	slli	t3,t3,0x27
    80005042:	1e1e                	slli	t3,t3,0x27
    80005044:	1e1e                	slli	t3,t3,0x27
    80005046:	1e1e                	slli	t3,t3,0x27
    80005048:	1e1e                	slli	t3,t3,0x27
    8000504a:	1e1e                	slli	t3,t3,0x27
    8000504c:	1e1e                	slli	t3,t3,0x27
    8000504e:	1e1e                	slli	t3,t3,0x27
    80005050:	1e1e                	slli	t3,t3,0x27
    80005052:	1e1e                	slli	t3,t3,0x27
    80005054:	1e1e                	slli	t3,t3,0x27
    80005056:	1e1e                	slli	t3,t3,0x27
    80005058:	1e1e                	slli	t3,t3,0x27
    8000505a:	1e1e                	slli	t3,t3,0x27
    8000505c:	1e1e                	slli	t3,t3,0x27
    8000505e:	1e1e                	slli	t3,t3,0x27
    80005060:	1e1e                	slli	t3,t3,0x27
    80005062:	1e1e                	slli	t3,t3,0x27
    80005064:	1e1e                	slli	t3,t3,0x27
    80005066:	1e1e                	slli	t3,t3,0x27
    80005068:	1e1e                	slli	t3,t3,0x27
    8000506a:	1e1e                	slli	t3,t3,0x27
    8000506c:	1e1e                	slli	t3,t3,0x27
    8000506e:	1e1e                	slli	t3,t3,0x27
    80005070:	1e1e                	slli	t3,t3,0x27
    80005072:	1e1e                	slli	t3,t3,0x27
    80005074:	1e1e                	slli	t3,t3,0x27
    80005076:	1e1e                	slli	t3,t3,0x27
    80005078:	1e1e                	slli	t3,t3,0x27
    8000507a:	1e1e                	slli	t3,t3,0x27
    8000507c:	1e1e                	slli	t3,t3,0x27
    8000507e:	1e1e                	slli	t3,t3,0x27
    80005080:	1e1e                	slli	t3,t3,0x27
    80005082:	1e1e                	slli	t3,t3,0x27
    80005084:	1e1e                	slli	t3,t3,0x27
    80005086:	1e1e                	slli	t3,t3,0x27
    80005088:	1e1e                	slli	t3,t3,0x27
    8000508a:	1e1e                	slli	t3,t3,0x27
    8000508c:	1e1e                	slli	t3,t3,0x27
    8000508e:	1e1e                	slli	t3,t3,0x27
    80005090:	1e1e                	slli	t3,t3,0x27
    80005092:	1e1e                	slli	t3,t3,0x27
    80005094:	1e1e                	slli	t3,t3,0x27
    80005096:	1e1e                	slli	t3,t3,0x27
    80005098:	1e1e                	slli	t3,t3,0x27
    8000509a:	1e1e                	slli	t3,t3,0x27
    8000509c:	1e1e                	slli	t3,t3,0x27
    8000509e:	1e1e                	slli	t3,t3,0x27
    800050a0:	1e1e                	slli	t3,t3,0x27
    800050a2:	1e1e                	slli	t3,t3,0x27
    800050a4:	1e1e                	slli	t3,t3,0x27
    800050a6:	1e1e                	slli	t3,t3,0x27
    800050a8:	1e1e                	slli	t3,t3,0x27
    800050aa:	1e1e                	slli	t3,t3,0x27
    800050ac:	1e1e                	slli	t3,t3,0x27
    800050ae:	1e1e                	slli	t3,t3,0x27
    800050b0:	1e1e                	slli	t3,t3,0x27
    800050b2:	1e1e                	slli	t3,t3,0x27
    800050b4:	1e1e                	slli	t3,t3,0x27
    800050b6:	1e1e                	slli	t3,t3,0x27
    800050b8:	1e1e                	slli	t3,t3,0x27
    800050ba:	1e1e                	slli	t3,t3,0x27
    800050bc:	1e1e                	slli	t3,t3,0x27
    800050be:	1e1e                	slli	t3,t3,0x27
    800050c0:	1e1e                	slli	t3,t3,0x27
    800050c2:	1e1e                	slli	t3,t3,0x27
    800050c4:	1e1e                	slli	t3,t3,0x27
    800050c6:	1e1e                	slli	t3,t3,0x27
    800050c8:	1e1e                	slli	t3,t3,0x27
    800050ca:	1e1e                	slli	t3,t3,0x27
    800050cc:	1e1e                	slli	t3,t3,0x27
    800050ce:	1e1e                	slli	t3,t3,0x27
    800050d0:	1e1e                	slli	t3,t3,0x27
    800050d2:	1e1e                	slli	t3,t3,0x27
    800050d4:	1e1e                	slli	t3,t3,0x27
    800050d6:	1e1e                	slli	t3,t3,0x27
    800050d8:	1e1e                	slli	t3,t3,0x27
    800050da:	1e1e                	slli	t3,t3,0x27
    800050dc:	1e1e                	slli	t3,t3,0x27
    800050de:	1e1e                	slli	t3,t3,0x27
    800050e0:	1e1e                	slli	t3,t3,0x27
    800050e2:	1e1e                	slli	t3,t3,0x27
    800050e4:	1e1e                	slli	t3,t3,0x27
    800050e6:	1e1e                	slli	t3,t3,0x27
    800050e8:	1e1e                	slli	t3,t3,0x27
    800050ea:	1e1e                	slli	t3,t3,0x27
    800050ec:	1e1e                	slli	t3,t3,0x27
    800050ee:	1e1e                	slli	t3,t3,0x27
    800050f0:	1e1e                	slli	t3,t3,0x27
    800050f2:	1e1e                	slli	t3,t3,0x27
    800050f4:	1e1e                	slli	t3,t3,0x27
    800050f6:	1e1e                	slli	t3,t3,0x27
    800050f8:	1e1e                	slli	t3,t3,0x27
    800050fa:	1e1e                	slli	t3,t3,0x27
    800050fc:	1e1e                	slli	t3,t3,0x27
    800050fe:	1e1e                	slli	t3,t3,0x27
    80005100:	1e1e                	slli	t3,t3,0x27
    80005102:	1e1e                	slli	t3,t3,0x27
    80005104:	1e1e                	slli	t3,t3,0x27
    80005106:	1e1e                	slli	t3,t3,0x27
    80005108:	1e1e                	slli	t3,t3,0x27
    8000510a:	1e1e                	slli	t3,t3,0x27
    8000510c:	1e1e                	slli	t3,t3,0x27
    8000510e:	1e1e                	slli	t3,t3,0x27
    80005110:	1e1e                	slli	t3,t3,0x27
    80005112:	1e1e                	slli	t3,t3,0x27
    80005114:	1e1e                	slli	t3,t3,0x27
    80005116:	1e1e                	slli	t3,t3,0x27
    80005118:	1e1e                	slli	t3,t3,0x27
    8000511a:	1e1e                	slli	t3,t3,0x27
    8000511c:	1e1e                	slli	t3,t3,0x27
    8000511e:	1e1e                	slli	t3,t3,0x27
    80005120:	1e1e                	slli	t3,t3,0x27
    80005122:	1e1e                	slli	t3,t3,0x27
    80005124:	1e1e                	slli	t3,t3,0x27
    80005126:	1e1e                	slli	t3,t3,0x27
    80005128:	1e1e                	slli	t3,t3,0x27
    8000512a:	1e1e                	slli	t3,t3,0x27
    8000512c:	1e1e                	slli	t3,t3,0x27
    8000512e:	1e1e                	slli	t3,t3,0x27
    80005130:	1e1e                	slli	t3,t3,0x27
    80005132:	1e1e                	slli	t3,t3,0x27
    80005134:	1e1e                	slli	t3,t3,0x27
    80005136:	1e1e                	slli	t3,t3,0x27
    80005138:	1e1e                	slli	t3,t3,0x27
    8000513a:	1e1e                	slli	t3,t3,0x27
    8000513c:	1e1e                	slli	t3,t3,0x27
    8000513e:	1e1e                	slli	t3,t3,0x27
    80005140:	1e1e                	slli	t3,t3,0x27
    80005142:	1e1e                	slli	t3,t3,0x27
    80005144:	1e1e                	slli	t3,t3,0x27
    80005146:	1e1e                	slli	t3,t3,0x27
    80005148:	1e1e                	slli	t3,t3,0x27
    8000514a:	1e1e                	slli	t3,t3,0x27
    8000514c:	1e1e                	slli	t3,t3,0x27
    8000514e:	1e1e                	slli	t3,t3,0x27
    80005150:	1e1e                	slli	t3,t3,0x27
    80005152:	1e1e                	slli	t3,t3,0x27
    80005154:	1e1e                	slli	t3,t3,0x27
    80005156:	1e1e                	slli	t3,t3,0x27
    80005158:	1e1e                	slli	t3,t3,0x27
    8000515a:	1e1e                	slli	t3,t3,0x27
    8000515c:	1e1e                	slli	t3,t3,0x27
    8000515e:	1e1e                	slli	t3,t3,0x27
    80005160:	1e1e                	slli	t3,t3,0x27
    80005162:	1e1e                	slli	t3,t3,0x27
    80005164:	1e1e                	slli	t3,t3,0x27
    80005166:	1e1e                	slli	t3,t3,0x27
    80005168:	1e1e                	slli	t3,t3,0x27
    8000516a:	1e1e                	slli	t3,t3,0x27
    8000516c:	1e1e                	slli	t3,t3,0x27
    8000516e:	1e1e                	slli	t3,t3,0x27
    80005170:	1e1e                	slli	t3,t3,0x27
    80005172:	1e1e                	slli	t3,t3,0x27
    80005174:	1e1e                	slli	t3,t3,0x27
    80005176:	1e1e                	slli	t3,t3,0x27
    80005178:	1e1e                	slli	t3,t3,0x27
    8000517a:	1e1e                	slli	t3,t3,0x27
    8000517c:	1e1e                	slli	t3,t3,0x27
    8000517e:	1e1e                	slli	t3,t3,0x27
    80005180:	1e1e                	slli	t3,t3,0x27
    80005182:	1e1e                	slli	t3,t3,0x27
    80005184:	1e1e                	slli	t3,t3,0x27
    80005186:	1e1e                	slli	t3,t3,0x27
    80005188:	1e1e                	slli	t3,t3,0x27
    8000518a:	1e1e                	slli	t3,t3,0x27
    8000518c:	1e1e                	slli	t3,t3,0x27
    8000518e:	1e1e                	slli	t3,t3,0x27
    80005190:	1e1e                	slli	t3,t3,0x27
    80005192:	1e1e                	slli	t3,t3,0x27
    80005194:	1e1e                	slli	t3,t3,0x27
    80005196:	1e1e                	slli	t3,t3,0x27
    80005198:	1e1e                	slli	t3,t3,0x27
    8000519a:	1e1e                	slli	t3,t3,0x27
    8000519c:	1e1e                	slli	t3,t3,0x27
    8000519e:	1e1e                	slli	t3,t3,0x27
    800051a0:	1e1e                	slli	t3,t3,0x27
    800051a2:	1e1e                	slli	t3,t3,0x27
    800051a4:	1e1e                	slli	t3,t3,0x27
    800051a6:	1e1e                	slli	t3,t3,0x27
    800051a8:	1e1e                	slli	t3,t3,0x27
    800051aa:	1e1e                	slli	t3,t3,0x27
    800051ac:	1e1e                	slli	t3,t3,0x27
    800051ae:	1e1e                	slli	t3,t3,0x27
    800051b0:	1e1e                	slli	t3,t3,0x27
    800051b2:	1e1e                	slli	t3,t3,0x27
    800051b4:	1e1e                	slli	t3,t3,0x27
    800051b6:	1e1e                	slli	t3,t3,0x27
    800051b8:	1e1e                	slli	t3,t3,0x27
    800051ba:	1e1e                	slli	t3,t3,0x27
    800051bc:	1e1e                	slli	t3,t3,0x27
    800051be:	1e1e                	slli	t3,t3,0x27
    800051c0:	1e1e                	slli	t3,t3,0x27
    800051c2:	1e1e                	slli	t3,t3,0x27
    800051c4:	1e1e                	slli	t3,t3,0x27
    800051c6:	1e1e                	slli	t3,t3,0x27
    800051c8:	1e1e                	slli	t3,t3,0x27
    800051ca:	1e1e                	slli	t3,t3,0x27
    800051cc:	1e1e                	slli	t3,t3,0x27
    800051ce:	1e1e                	slli	t3,t3,0x27
    800051d0:	1e1e                	slli	t3,t3,0x27
    800051d2:	1e1e                	slli	t3,t3,0x27
    800051d4:	1e1e                	slli	t3,t3,0x27
    800051d6:	1e1e                	slli	t3,t3,0x27
    800051d8:	1e1e                	slli	t3,t3,0x27
    800051da:	1e1e                	slli	t3,t3,0x27
    800051dc:	1e1e                	slli	t3,t3,0x27
    800051de:	1e1e                	slli	t3,t3,0x27
    800051e0:	1e1e                	slli	t3,t3,0x27
    800051e2:	1e1e                	slli	t3,t3,0x27
    800051e4:	1e1e                	slli	t3,t3,0x27
    800051e6:	1e1e                	slli	t3,t3,0x27
    800051e8:	1e1e                	slli	t3,t3,0x27
    800051ea:	1e1e                	slli	t3,t3,0x27
    800051ec:	1e1e                	slli	t3,t3,0x27
    800051ee:	1e1e                	slli	t3,t3,0x27
    800051f0:	1e1e                	slli	t3,t3,0x27
    800051f2:	1e1e                	slli	t3,t3,0x27
    800051f4:	1e1e                	slli	t3,t3,0x27
    800051f6:	1e1e                	slli	t3,t3,0x27
    800051f8:	1e1e                	slli	t3,t3,0x27
    800051fa:	1e1e                	slli	t3,t3,0x27
    800051fc:	1e1e                	slli	t3,t3,0x27
    800051fe:	1e1e                	slli	t3,t3,0x27
    80005200:	1e1e                	slli	t3,t3,0x27
    80005202:	1e1e                	slli	t3,t3,0x27
    80005204:	1e1e                	slli	t3,t3,0x27
    80005206:	1e1e                	slli	t3,t3,0x27
    80005208:	1e1e                	slli	t3,t3,0x27
    8000520a:	1e1e                	slli	t3,t3,0x27
    8000520c:	1e1e                	slli	t3,t3,0x27
    8000520e:	1e1e                	slli	t3,t3,0x27
    80005210:	1e1e                	slli	t3,t3,0x27
    80005212:	1e1e                	slli	t3,t3,0x27
    80005214:	1e1e                	slli	t3,t3,0x27
    80005216:	1e1e                	slli	t3,t3,0x27
    80005218:	1e1e                	slli	t3,t3,0x27
    8000521a:	1e1e                	slli	t3,t3,0x27
    8000521c:	1e1e                	slli	t3,t3,0x27
    8000521e:	1e1e                	slli	t3,t3,0x27
    80005220:	1e1e                	slli	t3,t3,0x27
    80005222:	1e1e                	slli	t3,t3,0x27
    80005224:	1e1e                	slli	t3,t3,0x27
    80005226:	1e1e                	slli	t3,t3,0x27
    80005228:	1e1e                	slli	t3,t3,0x27
    8000522a:	1e1e                	slli	t3,t3,0x27
    8000522c:	1e1e                	slli	t3,t3,0x27
    8000522e:	1e1e                	slli	t3,t3,0x27
    80005230:	1e1e                	slli	t3,t3,0x27
    80005232:	1e1e                	slli	t3,t3,0x27
    80005234:	1e1e                	slli	t3,t3,0x27
    80005236:	1e1e                	slli	t3,t3,0x27
    80005238:	1e1e                	slli	t3,t3,0x27
    8000523a:	1e1e                	slli	t3,t3,0x27
    8000523c:	1e1e                	slli	t3,t3,0x27
    8000523e:	1e1e                	slli	t3,t3,0x27
    80005240:	1e1e                	slli	t3,t3,0x27
    80005242:	1e1e                	slli	t3,t3,0x27
    80005244:	1e1e                	slli	t3,t3,0x27
    80005246:	1e1e                	slli	t3,t3,0x27
    80005248:	1e1e                	slli	t3,t3,0x27
    8000524a:	1e1e                	slli	t3,t3,0x27
    8000524c:	1e1e                	slli	t3,t3,0x27
    8000524e:	1e1e                	slli	t3,t3,0x27
    80005250:	1e1e                	slli	t3,t3,0x27
    80005252:	1e1e                	slli	t3,t3,0x27
    80005254:	1e1e                	slli	t3,t3,0x27
    80005256:	1e1e                	slli	t3,t3,0x27
    80005258:	1e1e                	slli	t3,t3,0x27
    8000525a:	1e1e                	slli	t3,t3,0x27
    8000525c:	1e1e                	slli	t3,t3,0x27
    8000525e:	1e1e                	slli	t3,t3,0x27
    80005260:	1e1e                	slli	t3,t3,0x27
    80005262:	1e1e                	slli	t3,t3,0x27
    80005264:	1e1e                	slli	t3,t3,0x27
    80005266:	1e1e                	slli	t3,t3,0x27
    80005268:	1e1e                	slli	t3,t3,0x27
    8000526a:	1e1e                	slli	t3,t3,0x27
    8000526c:	1e1e                	slli	t3,t3,0x27
    8000526e:	1e1e                	slli	t3,t3,0x27
    80005270:	1e1e                	slli	t3,t3,0x27
    80005272:	1e1e                	slli	t3,t3,0x27
    80005274:	1e1e                	slli	t3,t3,0x27
    80005276:	1e1e                	slli	t3,t3,0x27
    80005278:	1e1e                	slli	t3,t3,0x27
    8000527a:	1e1e                	slli	t3,t3,0x27
    8000527c:	1e1e                	slli	t3,t3,0x27
    8000527e:	1e1e                	slli	t3,t3,0x27
    80005280:	1e1e                	slli	t3,t3,0x27
    80005282:	1e1e                	slli	t3,t3,0x27
    80005284:	1e1e                	slli	t3,t3,0x27
    80005286:	1e1e                	slli	t3,t3,0x27
    80005288:	1e1e                	slli	t3,t3,0x27
    8000528a:	1e1e                	slli	t3,t3,0x27
    8000528c:	1e1e                	slli	t3,t3,0x27
    8000528e:	1e1e                	slli	t3,t3,0x27
    80005290:	1e1e                	slli	t3,t3,0x27
    80005292:	1e1e                	slli	t3,t3,0x27
    80005294:	1e1e                	slli	t3,t3,0x27
    80005296:	1e1e                	slli	t3,t3,0x27
    80005298:	1e1e                	slli	t3,t3,0x27
    8000529a:	1e1e                	slli	t3,t3,0x27
    8000529c:	1e1e                	slli	t3,t3,0x27
    8000529e:	1e1e                	slli	t3,t3,0x27
    800052a0:	1e1e                	slli	t3,t3,0x27
    800052a2:	1e1e                	slli	t3,t3,0x27
    800052a4:	1e1e                	slli	t3,t3,0x27
    800052a6:	1e1e                	slli	t3,t3,0x27
    800052a8:	1e1e                	slli	t3,t3,0x27
    800052aa:	1e1e                	slli	t3,t3,0x27
    800052ac:	1e1e                	slli	t3,t3,0x27
    800052ae:	1e1e                	slli	t3,t3,0x27
    800052b0:	1e1e                	slli	t3,t3,0x27
    800052b2:	1e1e                	slli	t3,t3,0x27
    800052b4:	1e1e                	slli	t3,t3,0x27
    800052b6:	1e1e                	slli	t3,t3,0x27
    800052b8:	1e1e                	slli	t3,t3,0x27
    800052ba:	1e1e                	slli	t3,t3,0x27
    800052bc:	1e1e                	slli	t3,t3,0x27
    800052be:	1e1e                	slli	t3,t3,0x27
    800052c0:	1e1e                	slli	t3,t3,0x27
    800052c2:	1e1e                	slli	t3,t3,0x27
    800052c4:	1e1e                	slli	t3,t3,0x27
    800052c6:	1e1e                	slli	t3,t3,0x27
    800052c8:	1e1e                	slli	t3,t3,0x27
    800052ca:	1e1e                	slli	t3,t3,0x27
    800052cc:	1e1e                	slli	t3,t3,0x27
    800052ce:	1e1e                	slli	t3,t3,0x27
    800052d0:	1e1e                	slli	t3,t3,0x27
    800052d2:	1e1e                	slli	t3,t3,0x27
    800052d4:	1e1e                	slli	t3,t3,0x27
    800052d6:	1e1e                	slli	t3,t3,0x27
    800052d8:	1e1e                	slli	t3,t3,0x27
    800052da:	1e1e                	slli	t3,t3,0x27
    800052dc:	1e1e                	slli	t3,t3,0x27
    800052de:	1e1e                	slli	t3,t3,0x27
    800052e0:	1e1e                	slli	t3,t3,0x27
    800052e2:	1e1e                	slli	t3,t3,0x27
    800052e4:	1e1e                	slli	t3,t3,0x27
    800052e6:	1e1e                	slli	t3,t3,0x27
    800052e8:	1e1e                	slli	t3,t3,0x27
    800052ea:	1e1e                	slli	t3,t3,0x27
    800052ec:	1e1e                	slli	t3,t3,0x27
    800052ee:	1e1e                	slli	t3,t3,0x27
    800052f0:	1e1e                	slli	t3,t3,0x27
    800052f2:	1e1e                	slli	t3,t3,0x27
    800052f4:	1e1e                	slli	t3,t3,0x27
    800052f6:	1e1e                	slli	t3,t3,0x27
    800052f8:	1e1e                	slli	t3,t3,0x27
    800052fa:	1e1e                	slli	t3,t3,0x27
    800052fc:	1e1e                	slli	t3,t3,0x27
    800052fe:	1e1e                	slli	t3,t3,0x27
    80005300:	1e1e                	slli	t3,t3,0x27
    80005302:	1e1e                	slli	t3,t3,0x27
    80005304:	1e1e                	slli	t3,t3,0x27
    80005306:	1e1e                	slli	t3,t3,0x27
    80005308:	1e1e                	slli	t3,t3,0x27
    8000530a:	1e1e                	slli	t3,t3,0x27
    8000530c:	1e1e                	slli	t3,t3,0x27
    8000530e:	1e1e                	slli	t3,t3,0x27
    80005310:	1e1e                	slli	t3,t3,0x27
    80005312:	1e1e                	slli	t3,t3,0x27
    80005314:	1e1e                	slli	t3,t3,0x27
    80005316:	1e1e                	slli	t3,t3,0x27
    80005318:	1e1e                	slli	t3,t3,0x27
    8000531a:	1e1e                	slli	t3,t3,0x27
    8000531c:	1e1e                	slli	t3,t3,0x27
    8000531e:	1e1e                	slli	t3,t3,0x27
    80005320:	1e1e                	slli	t3,t3,0x27
    80005322:	1e1e                	slli	t3,t3,0x27
    80005324:	1e1e                	slli	t3,t3,0x27
    80005326:	1e1e                	slli	t3,t3,0x27
    80005328:	1e1e                	slli	t3,t3,0x27
    8000532a:	1e1e                	slli	t3,t3,0x27
    8000532c:	1e1e                	slli	t3,t3,0x27
    8000532e:	1e1e                	slli	t3,t3,0x27
    80005330:	1e1e                	slli	t3,t3,0x27
    80005332:	1e1e                	slli	t3,t3,0x27
    80005334:	1e1e                	slli	t3,t3,0x27
    80005336:	1e1e                	slli	t3,t3,0x27
    80005338:	1e1e                	slli	t3,t3,0x27
    8000533a:	1e1e                	slli	t3,t3,0x27
    8000533c:	1e1e                	slli	t3,t3,0x27
    8000533e:	1e1e                	slli	t3,t3,0x27
    80005340:	1e1e                	slli	t3,t3,0x27
    80005342:	1e1e                	slli	t3,t3,0x27
    80005344:	1e1e                	slli	t3,t3,0x27
    80005346:	1e1e                	slli	t3,t3,0x27
    80005348:	1e1e                	slli	t3,t3,0x27
    8000534a:	1e1e                	slli	t3,t3,0x27
    8000534c:	1e1e                	slli	t3,t3,0x27
    8000534e:	1e1e                	slli	t3,t3,0x27
    80005350:	1e1e                	slli	t3,t3,0x27
    80005352:	1e1e                	slli	t3,t3,0x27
    80005354:	1e1e                	slli	t3,t3,0x27
    80005356:	1e1e                	slli	t3,t3,0x27
    80005358:	1e1e                	slli	t3,t3,0x27
    8000535a:	1e1e                	slli	t3,t3,0x27
    8000535c:	1e1e                	slli	t3,t3,0x27
    8000535e:	1e1e                	slli	t3,t3,0x27
    80005360:	1e1e                	slli	t3,t3,0x27
    80005362:	1e1e                	slli	t3,t3,0x27
    80005364:	1e1e                	slli	t3,t3,0x27
    80005366:	1e1e                	slli	t3,t3,0x27
    80005368:	1e1e                	slli	t3,t3,0x27
    8000536a:	1e1e                	slli	t3,t3,0x27
    8000536c:	1e1e                	slli	t3,t3,0x27
    8000536e:	1e1e                	slli	t3,t3,0x27
    80005370:	1e1e                	slli	t3,t3,0x27
    80005372:	1e1e                	slli	t3,t3,0x27
    80005374:	1e1e                	slli	t3,t3,0x27
    80005376:	1e1e                	slli	t3,t3,0x27
    80005378:	1e1e                	slli	t3,t3,0x27
    8000537a:	1e1e                	slli	t3,t3,0x27
    8000537c:	1e1e                	slli	t3,t3,0x27
    8000537e:	1e1e                	slli	t3,t3,0x27
    80005380:	1e1e                	slli	t3,t3,0x27
    80005382:	1e1e                	slli	t3,t3,0x27
    80005384:	1e1e                	slli	t3,t3,0x27
    80005386:	1e1e                	slli	t3,t3,0x27
    80005388:	1e1e                	slli	t3,t3,0x27
    8000538a:	1e1e                	slli	t3,t3,0x27
    8000538c:	1e1e                	slli	t3,t3,0x27
    8000538e:	1e1e                	slli	t3,t3,0x27
    80005390:	1e1e                	slli	t3,t3,0x27
    80005392:	1e1e                	slli	t3,t3,0x27
    80005394:	1e1e                	slli	t3,t3,0x27
    80005396:	1e1e                	slli	t3,t3,0x27
    80005398:	1e1e                	slli	t3,t3,0x27
    8000539a:	1e1e                	slli	t3,t3,0x27
    8000539c:	1e1e                	slli	t3,t3,0x27
    8000539e:	1e1e                	slli	t3,t3,0x27
    800053a0:	1e1e                	slli	t3,t3,0x27
    800053a2:	1e1e                	slli	t3,t3,0x27
    800053a4:	1e1e                	slli	t3,t3,0x27
    800053a6:	1e1e                	slli	t3,t3,0x27
    800053a8:	1e1e                	slli	t3,t3,0x27
    800053aa:	1e1e                	slli	t3,t3,0x27
    800053ac:	1e1e                	slli	t3,t3,0x27
    800053ae:	1e1e                	slli	t3,t3,0x27
    800053b0:	1e1e                	slli	t3,t3,0x27
    800053b2:	1e1e                	slli	t3,t3,0x27
    800053b4:	1e1e                	slli	t3,t3,0x27
    800053b6:	1e1e                	slli	t3,t3,0x27
    800053b8:	1e1e                	slli	t3,t3,0x27
    800053ba:	1e1e                	slli	t3,t3,0x27
    800053bc:	1e1e                	slli	t3,t3,0x27
    800053be:	1e1e                	slli	t3,t3,0x27
    800053c0:	1e1e                	slli	t3,t3,0x27
    800053c2:	1e1e                	slli	t3,t3,0x27
    800053c4:	1e1e                	slli	t3,t3,0x27
    800053c6:	1e1e                	slli	t3,t3,0x27
    800053c8:	1e1e                	slli	t3,t3,0x27
    800053ca:	1e1e                	slli	t3,t3,0x27
    800053cc:	1e1e                	slli	t3,t3,0x27
    800053ce:	1e1e                	slli	t3,t3,0x27
    800053d0:	1e1e                	slli	t3,t3,0x27
    800053d2:	1e1e                	slli	t3,t3,0x27
    800053d4:	1e1e                	slli	t3,t3,0x27
    800053d6:	1e1e                	slli	t3,t3,0x27
    800053d8:	1e1e                	slli	t3,t3,0x27
    800053da:	1e1e                	slli	t3,t3,0x27
    800053dc:	1e1e                	slli	t3,t3,0x27
    800053de:	1e1e                	slli	t3,t3,0x27
    800053e0:	1e1e                	slli	t3,t3,0x27
    800053e2:	1e1e                	slli	t3,t3,0x27
    800053e4:	1e1e                	slli	t3,t3,0x27
    800053e6:	1e1e                	slli	t3,t3,0x27
    800053e8:	1e1e                	slli	t3,t3,0x27
    800053ea:	1e1e                	slli	t3,t3,0x27
    800053ec:	1e1e                	slli	t3,t3,0x27
    800053ee:	1e1e                	slli	t3,t3,0x27
    800053f0:	1e1e                	slli	t3,t3,0x27
    800053f2:	1e1e                	slli	t3,t3,0x27
    800053f4:	1e1e                	slli	t3,t3,0x27
    800053f6:	1e1e                	slli	t3,t3,0x27
    800053f8:	1e1e                	slli	t3,t3,0x27
    800053fa:	1e1e                	slli	t3,t3,0x27
    800053fc:	1e1e                	slli	t3,t3,0x27
    800053fe:	1e1e                	slli	t3,t3,0x27
    80005400:	1e1e                	slli	t3,t3,0x27
    80005402:	1e1e                	slli	t3,t3,0x27
    80005404:	1e1e                	slli	t3,t3,0x27
    80005406:	1e1e                	slli	t3,t3,0x27
    80005408:	1e1e                	slli	t3,t3,0x27
    8000540a:	1e1e                	slli	t3,t3,0x27
    8000540c:	1e1e                	slli	t3,t3,0x27
    8000540e:	1e1e                	slli	t3,t3,0x27
    80005410:	1e1e                	slli	t3,t3,0x27
    80005412:	1e1e                	slli	t3,t3,0x27
    80005414:	1e1e                	slli	t3,t3,0x27
    80005416:	1e1e                	slli	t3,t3,0x27
    80005418:	1e1e                	slli	t3,t3,0x27
    8000541a:	1e1e                	slli	t3,t3,0x27
    8000541c:	1e1e                	slli	t3,t3,0x27
    8000541e:	1e1e                	slli	t3,t3,0x27
    80005420:	1e1e                	slli	t3,t3,0x27
    80005422:	1e1e                	slli	t3,t3,0x27
    80005424:	1e1e                	slli	t3,t3,0x27
    80005426:	1e1e                	slli	t3,t3,0x27
    80005428:	1e1e                	slli	t3,t3,0x27
    8000542a:	1e1e                	slli	t3,t3,0x27
    8000542c:	1e1e                	slli	t3,t3,0x27
    8000542e:	1e1e                	slli	t3,t3,0x27
    80005430:	1e1e                	slli	t3,t3,0x27
    80005432:	1e1e                	slli	t3,t3,0x27
    80005434:	1e1e                	slli	t3,t3,0x27
    80005436:	1e1e                	slli	t3,t3,0x27
    80005438:	1e1e                	slli	t3,t3,0x27
    8000543a:	1e1e                	slli	t3,t3,0x27
    8000543c:	1e1e                	slli	t3,t3,0x27
    8000543e:	1e1e                	slli	t3,t3,0x27
    80005440:	1e1e                	slli	t3,t3,0x27
    80005442:	1e1e                	slli	t3,t3,0x27
    80005444:	1e1e                	slli	t3,t3,0x27
    80005446:	1e1e                	slli	t3,t3,0x27
    80005448:	1e1e                	slli	t3,t3,0x27
    8000544a:	1e1e                	slli	t3,t3,0x27
    8000544c:	1e1e                	slli	t3,t3,0x27
    8000544e:	1e1e                	slli	t3,t3,0x27
    80005450:	1e1e                	slli	t3,t3,0x27
    80005452:	1e1e                	slli	t3,t3,0x27
    80005454:	1e1e                	slli	t3,t3,0x27
    80005456:	1e1e                	slli	t3,t3,0x27
    80005458:	1e1e                	slli	t3,t3,0x27
    8000545a:	1e1e                	slli	t3,t3,0x27
    8000545c:	1e1e                	slli	t3,t3,0x27
    8000545e:	1e1e                	slli	t3,t3,0x27
    80005460:	1e1e                	slli	t3,t3,0x27
    80005462:	1e1e                	slli	t3,t3,0x27
    80005464:	1e1e                	slli	t3,t3,0x27
    80005466:	1e1e                	slli	t3,t3,0x27
    80005468:	1e1e                	slli	t3,t3,0x27
    8000546a:	1e1e                	slli	t3,t3,0x27
    8000546c:	1e1e                	slli	t3,t3,0x27
    8000546e:	1e1e                	slli	t3,t3,0x27
    80005470:	1e1e                	slli	t3,t3,0x27
    80005472:	1e1e                	slli	t3,t3,0x27
    80005474:	1e1e                	slli	t3,t3,0x27
    80005476:	1e1e                	slli	t3,t3,0x27
    80005478:	1e1e                	slli	t3,t3,0x27
    8000547a:	1e1e                	slli	t3,t3,0x27
    8000547c:	1e1e                	slli	t3,t3,0x27
    8000547e:	1e1e                	slli	t3,t3,0x27
    80005480:	1e1e                	slli	t3,t3,0x27
    80005482:	1e1e                	slli	t3,t3,0x27
    80005484:	1e1e                	slli	t3,t3,0x27
    80005486:	1e1e                	slli	t3,t3,0x27
    80005488:	1e1e                	slli	t3,t3,0x27
    8000548a:	1e1e                	slli	t3,t3,0x27
    8000548c:	1e1e                	slli	t3,t3,0x27
    8000548e:	1e1e                	slli	t3,t3,0x27
    80005490:	1e1e                	slli	t3,t3,0x27
    80005492:	1e1e                	slli	t3,t3,0x27
    80005494:	1e1e                	slli	t3,t3,0x27
    80005496:	1e1e                	slli	t3,t3,0x27
    80005498:	1e1e                	slli	t3,t3,0x27
    8000549a:	1e1e                	slli	t3,t3,0x27
    8000549c:	1e1e                	slli	t3,t3,0x27
    8000549e:	1e1e                	slli	t3,t3,0x27
    800054a0:	1e1e                	slli	t3,t3,0x27
    800054a2:	1e1e                	slli	t3,t3,0x27
    800054a4:	1e1e                	slli	t3,t3,0x27
    800054a6:	1e1e                	slli	t3,t3,0x27
    800054a8:	1e1e                	slli	t3,t3,0x27
    800054aa:	1e1e                	slli	t3,t3,0x27
    800054ac:	1e1e                	slli	t3,t3,0x27
    800054ae:	1e1e                	slli	t3,t3,0x27
    800054b0:	1e1e                	slli	t3,t3,0x27
    800054b2:	1e1e                	slli	t3,t3,0x27
    800054b4:	1e1e                	slli	t3,t3,0x27
    800054b6:	1e1e                	slli	t3,t3,0x27
    800054b8:	1e1e                	slli	t3,t3,0x27
    800054ba:	1e1e                	slli	t3,t3,0x27
    800054bc:	1e1e                	slli	t3,t3,0x27
    800054be:	1e1e                	slli	t3,t3,0x27
    800054c0:	1e1e                	slli	t3,t3,0x27
    800054c2:	1e1e                	slli	t3,t3,0x27
    800054c4:	1e1e                	slli	t3,t3,0x27
    800054c6:	1e1e                	slli	t3,t3,0x27
    800054c8:	1e1e                	slli	t3,t3,0x27
    800054ca:	1e1e                	slli	t3,t3,0x27
    800054cc:	1e1e                	slli	t3,t3,0x27
    800054ce:	1e1e                	slli	t3,t3,0x27
    800054d0:	1e1e                	slli	t3,t3,0x27
    800054d2:	1e1e                	slli	t3,t3,0x27
    800054d4:	1e1e                	slli	t3,t3,0x27
    800054d6:	1e1e                	slli	t3,t3,0x27
    800054d8:	1e1e                	slli	t3,t3,0x27
    800054da:	1e1e                	slli	t3,t3,0x27
    800054dc:	1e1e                	slli	t3,t3,0x27
    800054de:	1e1e                	slli	t3,t3,0x27
    800054e0:	1e1e                	slli	t3,t3,0x27
    800054e2:	1e1e                	slli	t3,t3,0x27
    800054e4:	1e1e                	slli	t3,t3,0x27
    800054e6:	1e1e                	slli	t3,t3,0x27
    800054e8:	1e1e                	slli	t3,t3,0x27
    800054ea:	1e1e                	slli	t3,t3,0x27
    800054ec:	1e1e                	slli	t3,t3,0x27
    800054ee:	1e1e                	slli	t3,t3,0x27
    800054f0:	1e1e                	slli	t3,t3,0x27
    800054f2:	1e1e                	slli	t3,t3,0x27
    800054f4:	1e1e                	slli	t3,t3,0x27
    800054f6:	1e1e                	slli	t3,t3,0x27
    800054f8:	1e1e                	slli	t3,t3,0x27
    800054fa:	1e1e                	slli	t3,t3,0x27
    800054fc:	1e1e                	slli	t3,t3,0x27
    800054fe:	1e1e                	slli	t3,t3,0x27
    80005500:	1e1e                	slli	t3,t3,0x27
    80005502:	1e1e                	slli	t3,t3,0x27
    80005504:	1e1e                	slli	t3,t3,0x27
    80005506:	1e1e                	slli	t3,t3,0x27
    80005508:	1e1e                	slli	t3,t3,0x27
    8000550a:	1e1e                	slli	t3,t3,0x27
    8000550c:	1e1e                	slli	t3,t3,0x27
    8000550e:	1e1e                	slli	t3,t3,0x27
    80005510:	1e1e                	slli	t3,t3,0x27
    80005512:	1e1e                	slli	t3,t3,0x27
    80005514:	1e1e                	slli	t3,t3,0x27
    80005516:	1e1e                	slli	t3,t3,0x27
    80005518:	1e1e                	slli	t3,t3,0x27
    8000551a:	1e1e                	slli	t3,t3,0x27
    8000551c:	1e1e                	slli	t3,t3,0x27
    8000551e:	1e1e                	slli	t3,t3,0x27
    80005520:	1e1e                	slli	t3,t3,0x27
    80005522:	1e1e                	slli	t3,t3,0x27
    80005524:	1e1e                	slli	t3,t3,0x27
    80005526:	1e1e                	slli	t3,t3,0x27
    80005528:	1e1e                	slli	t3,t3,0x27
    8000552a:	1e1e                	slli	t3,t3,0x27
    8000552c:	1e1e                	slli	t3,t3,0x27
    8000552e:	1e1e                	slli	t3,t3,0x27
    80005530:	1e1e                	slli	t3,t3,0x27
    80005532:	1e1e                	slli	t3,t3,0x27
    80005534:	1e1e                	slli	t3,t3,0x27
    80005536:	1e1e                	slli	t3,t3,0x27
    80005538:	1e1e                	slli	t3,t3,0x27
    8000553a:	1e1e                	slli	t3,t3,0x27
    8000553c:	1e1e                	slli	t3,t3,0x27
    8000553e:	1e1e                	slli	t3,t3,0x27
    80005540:	1e1e                	slli	t3,t3,0x27
    80005542:	1e1e                	slli	t3,t3,0x27
    80005544:	1e1e                	slli	t3,t3,0x27
    80005546:	1e1e                	slli	t3,t3,0x27
    80005548:	1e1e                	slli	t3,t3,0x27
    8000554a:	1e1e                	slli	t3,t3,0x27
    8000554c:	1e1e                	slli	t3,t3,0x27
    8000554e:	1e1e                	slli	t3,t3,0x27
    80005550:	1e1e                	slli	t3,t3,0x27
    80005552:	1e1e                	slli	t3,t3,0x27
    80005554:	1e1e                	slli	t3,t3,0x27
    80005556:	1e1e                	slli	t3,t3,0x27
    80005558:	1e1e                	slli	t3,t3,0x27
    8000555a:	1e1e                	slli	t3,t3,0x27
    8000555c:	1e1e                	slli	t3,t3,0x27
    8000555e:	1e1e                	slli	t3,t3,0x27
    80005560:	1e1e                	slli	t3,t3,0x27
    80005562:	1e1e                	slli	t3,t3,0x27
    80005564:	1e1e                	slli	t3,t3,0x27
    80005566:	1e1e                	slli	t3,t3,0x27
    80005568:	1e1e                	slli	t3,t3,0x27
    8000556a:	1e1e                	slli	t3,t3,0x27
    8000556c:	1e1e                	slli	t3,t3,0x27
    8000556e:	1e1e                	slli	t3,t3,0x27
    80005570:	1e1e                	slli	t3,t3,0x27
    80005572:	1e1e                	slli	t3,t3,0x27
    80005574:	1e1e                	slli	t3,t3,0x27
    80005576:	1e1e                	slli	t3,t3,0x27
    80005578:	1e1e                	slli	t3,t3,0x27
    8000557a:	1e1e                	slli	t3,t3,0x27
    8000557c:	1e1e                	slli	t3,t3,0x27
    8000557e:	1e1e                	slli	t3,t3,0x27
    80005580:	1e1e                	slli	t3,t3,0x27
    80005582:	1e1e                	slli	t3,t3,0x27
    80005584:	1e1e                	slli	t3,t3,0x27
    80005586:	1e1e                	slli	t3,t3,0x27
    80005588:	1e1e                	slli	t3,t3,0x27
    8000558a:	1e1e                	slli	t3,t3,0x27
    8000558c:	1e1e                	slli	t3,t3,0x27
    8000558e:	1e1e                	slli	t3,t3,0x27
    80005590:	1e1e                	slli	t3,t3,0x27
    80005592:	1e1e                	slli	t3,t3,0x27
    80005594:	1e1e                	slli	t3,t3,0x27
    80005596:	1e1e                	slli	t3,t3,0x27
    80005598:	1e1e                	slli	t3,t3,0x27
    8000559a:	1e1e                	slli	t3,t3,0x27
    8000559c:	1e1e                	slli	t3,t3,0x27
    8000559e:	1e1e                	slli	t3,t3,0x27
    800055a0:	1e1e                	slli	t3,t3,0x27
    800055a2:	1e1e                	slli	t3,t3,0x27
    800055a4:	1e1e                	slli	t3,t3,0x27
    800055a6:	1e1e                	slli	t3,t3,0x27
    800055a8:	1e1e                	slli	t3,t3,0x27
    800055aa:	1e1e                	slli	t3,t3,0x27
    800055ac:	1e1e                	slli	t3,t3,0x27
    800055ae:	1e1e                	slli	t3,t3,0x27
    800055b0:	1e1e                	slli	t3,t3,0x27
    800055b2:	1e1e                	slli	t3,t3,0x27
    800055b4:	1e1e                	slli	t3,t3,0x27
    800055b6:	1e1e                	slli	t3,t3,0x27
    800055b8:	1e1e                	slli	t3,t3,0x27
    800055ba:	1e1e                	slli	t3,t3,0x27
    800055bc:	1e1e                	slli	t3,t3,0x27
    800055be:	1e1e                	slli	t3,t3,0x27
    800055c0:	1e1e                	slli	t3,t3,0x27
    800055c2:	1e1e                	slli	t3,t3,0x27
    800055c4:	1e1e                	slli	t3,t3,0x27
    800055c6:	1e1e                	slli	t3,t3,0x27
    800055c8:	1e1e                	slli	t3,t3,0x27
    800055ca:	1e1e                	slli	t3,t3,0x27
    800055cc:	1e1e                	slli	t3,t3,0x27
    800055ce:	1e1e                	slli	t3,t3,0x27
    800055d0:	1e1e                	slli	t3,t3,0x27
    800055d2:	1e1e                	slli	t3,t3,0x27
    800055d4:	1e1e                	slli	t3,t3,0x27
    800055d6:	1e1e                	slli	t3,t3,0x27
    800055d8:	1e1e                	slli	t3,t3,0x27
    800055da:	1e1e                	slli	t3,t3,0x27
    800055dc:	1e1e                	slli	t3,t3,0x27
    800055de:	1e1e                	slli	t3,t3,0x27
    800055e0:	1e1e                	slli	t3,t3,0x27
    800055e2:	1e1e                	slli	t3,t3,0x27
    800055e4:	1e1e                	slli	t3,t3,0x27
    800055e6:	1e1e                	slli	t3,t3,0x27
    800055e8:	1e1e                	slli	t3,t3,0x27
    800055ea:	1e1e                	slli	t3,t3,0x27
    800055ec:	1e1e                	slli	t3,t3,0x27
    800055ee:	1e1e                	slli	t3,t3,0x27
    800055f0:	1e1e                	slli	t3,t3,0x27
    800055f2:	1e1e                	slli	t3,t3,0x27
    800055f4:	1e1e                	slli	t3,t3,0x27
    800055f6:	1e1e                	slli	t3,t3,0x27
    800055f8:	1e1e                	slli	t3,t3,0x27
    800055fa:	1e1e                	slli	t3,t3,0x27
    800055fc:	1e1e                	slli	t3,t3,0x27
    800055fe:	1e1e                	slli	t3,t3,0x27
    80005600:	1e1e                	slli	t3,t3,0x27
    80005602:	1e1e                	slli	t3,t3,0x27
    80005604:	1e1e                	slli	t3,t3,0x27
    80005606:	1e1e                	slli	t3,t3,0x27
    80005608:	1e1e                	slli	t3,t3,0x27
    8000560a:	1e1e                	slli	t3,t3,0x27
    8000560c:	1e1e                	slli	t3,t3,0x27
    8000560e:	1e1e                	slli	t3,t3,0x27
    80005610:	1e1e                	slli	t3,t3,0x27
    80005612:	1e1e                	slli	t3,t3,0x27
    80005614:	1e1e                	slli	t3,t3,0x27
    80005616:	1e1e                	slli	t3,t3,0x27
    80005618:	1e1e                	slli	t3,t3,0x27
    8000561a:	1e1e                	slli	t3,t3,0x27
    8000561c:	1e1e                	slli	t3,t3,0x27
    8000561e:	1e1e                	slli	t3,t3,0x27
    80005620:	1e1e                	slli	t3,t3,0x27
    80005622:	1e1e                	slli	t3,t3,0x27
    80005624:	1e1e                	slli	t3,t3,0x27
    80005626:	1e1e                	slli	t3,t3,0x27
    80005628:	1e1e                	slli	t3,t3,0x27
    8000562a:	1e1e                	slli	t3,t3,0x27
    8000562c:	1e1e                	slli	t3,t3,0x27
    8000562e:	1e1e                	slli	t3,t3,0x27
    80005630:	1e1e                	slli	t3,t3,0x27
    80005632:	1e1e                	slli	t3,t3,0x27
    80005634:	1e1e                	slli	t3,t3,0x27
    80005636:	1e1e                	slli	t3,t3,0x27
    80005638:	1e1e                	slli	t3,t3,0x27
    8000563a:	1e1e                	slli	t3,t3,0x27
    8000563c:	1e1e                	slli	t3,t3,0x27
    8000563e:	1e1e                	slli	t3,t3,0x27
    80005640:	1e1e                	slli	t3,t3,0x27
    80005642:	1e1e                	slli	t3,t3,0x27
    80005644:	1e1e                	slli	t3,t3,0x27
    80005646:	1e1e                	slli	t3,t3,0x27
    80005648:	1e1e                	slli	t3,t3,0x27
    8000564a:	1e1e                	slli	t3,t3,0x27
    8000564c:	1e1e                	slli	t3,t3,0x27
    8000564e:	1e1e                	slli	t3,t3,0x27
    80005650:	1e1e                	slli	t3,t3,0x27
    80005652:	1e1e                	slli	t3,t3,0x27
    80005654:	1e1e                	slli	t3,t3,0x27
    80005656:	1e1e                	slli	t3,t3,0x27
    80005658:	1e1e                	slli	t3,t3,0x27
    8000565a:	1e1e                	slli	t3,t3,0x27
    8000565c:	1e1e                	slli	t3,t3,0x27
    8000565e:	1e1e                	slli	t3,t3,0x27
    80005660:	1e1e                	slli	t3,t3,0x27
    80005662:	1e1e                	slli	t3,t3,0x27
    80005664:	1e1e                	slli	t3,t3,0x27
    80005666:	1e1e                	slli	t3,t3,0x27
    80005668:	1e1e                	slli	t3,t3,0x27
    8000566a:	1e1e                	slli	t3,t3,0x27
    8000566c:	1e1e                	slli	t3,t3,0x27
    8000566e:	1e1e                	slli	t3,t3,0x27
    80005670:	1e1e                	slli	t3,t3,0x27
    80005672:	1e1e                	slli	t3,t3,0x27
    80005674:	1e1e                	slli	t3,t3,0x27
    80005676:	1e1e                	slli	t3,t3,0x27
    80005678:	1e1e                	slli	t3,t3,0x27
    8000567a:	1e1e                	slli	t3,t3,0x27
    8000567c:	1e1e                	slli	t3,t3,0x27
    8000567e:	1e1e                	slli	t3,t3,0x27
    80005680:	1e1e                	slli	t3,t3,0x27
    80005682:	1e1e                	slli	t3,t3,0x27
    80005684:	1e1e                	slli	t3,t3,0x27
    80005686:	1e1e                	slli	t3,t3,0x27
    80005688:	1e1e                	slli	t3,t3,0x27
    8000568a:	1e1e                	slli	t3,t3,0x27
    8000568c:	1e1e                	slli	t3,t3,0x27
    8000568e:	1e1e                	slli	t3,t3,0x27
    80005690:	1e1e                	slli	t3,t3,0x27
    80005692:	1e1e                	slli	t3,t3,0x27
    80005694:	1e1e                	slli	t3,t3,0x27
    80005696:	1e1e                	slli	t3,t3,0x27
    80005698:	1e1e                	slli	t3,t3,0x27
    8000569a:	1e1e                	slli	t3,t3,0x27
    8000569c:	1e1e                	slli	t3,t3,0x27
    8000569e:	1e1e                	slli	t3,t3,0x27
    800056a0:	1e1e                	slli	t3,t3,0x27
    800056a2:	1e1e                	slli	t3,t3,0x27
    800056a4:	1e1e                	slli	t3,t3,0x27
    800056a6:	1e1e                	slli	t3,t3,0x27
    800056a8:	1e1e                	slli	t3,t3,0x27
    800056aa:	1e1e                	slli	t3,t3,0x27
    800056ac:	1e1e                	slli	t3,t3,0x27
    800056ae:	1e1e                	slli	t3,t3,0x27
    800056b0:	1e1e                	slli	t3,t3,0x27
    800056b2:	1e1e                	slli	t3,t3,0x27
    800056b4:	1e1e                	slli	t3,t3,0x27
    800056b6:	1e1e                	slli	t3,t3,0x27
    800056b8:	1e1e                	slli	t3,t3,0x27
    800056ba:	1e1e                	slli	t3,t3,0x27
    800056bc:	1e1e                	slli	t3,t3,0x27
    800056be:	1e1e                	slli	t3,t3,0x27
    800056c0:	1e1e                	slli	t3,t3,0x27
    800056c2:	1e1e                	slli	t3,t3,0x27
    800056c4:	1e1e                	slli	t3,t3,0x27
    800056c6:	1e1e                	slli	t3,t3,0x27
    800056c8:	1e1e                	slli	t3,t3,0x27
    800056ca:	1e1e                	slli	t3,t3,0x27
    800056cc:	1e1e                	slli	t3,t3,0x27
    800056ce:	1e1e                	slli	t3,t3,0x27
    800056d0:	1e1e                	slli	t3,t3,0x27
    800056d2:	1e1e                	slli	t3,t3,0x27
    800056d4:	1e1e                	slli	t3,t3,0x27
    800056d6:	1e1e                	slli	t3,t3,0x27
    800056d8:	1e1e                	slli	t3,t3,0x27
    800056da:	1e1e                	slli	t3,t3,0x27
    800056dc:	1e1e                	slli	t3,t3,0x27
    800056de:	1e1e                	slli	t3,t3,0x27
    800056e0:	1e1e                	slli	t3,t3,0x27
    800056e2:	1e1e                	slli	t3,t3,0x27
    800056e4:	1e1e                	slli	t3,t3,0x27
    800056e6:	1e1e                	slli	t3,t3,0x27
    800056e8:	1e1e                	slli	t3,t3,0x27
    800056ea:	1e1e                	slli	t3,t3,0x27
    800056ec:	1e1e                	slli	t3,t3,0x27
    800056ee:	1e1e                	slli	t3,t3,0x27
    800056f0:	1e1e                	slli	t3,t3,0x27
    800056f2:	1e1e                	slli	t3,t3,0x27
    800056f4:	1e1e                	slli	t3,t3,0x27
    800056f6:	1e1e                	slli	t3,t3,0x27
    800056f8:	1e1e                	slli	t3,t3,0x27
    800056fa:	1e1e                	slli	t3,t3,0x27
    800056fc:	1e1e                	slli	t3,t3,0x27
    800056fe:	1e1e                	slli	t3,t3,0x27
    80005700:	1e1e                	slli	t3,t3,0x27
    80005702:	1e1e                	slli	t3,t3,0x27
    80005704:	1e1e                	slli	t3,t3,0x27
    80005706:	1e1e                	slli	t3,t3,0x27
    80005708:	1e1e                	slli	t3,t3,0x27
    8000570a:	1e1e                	slli	t3,t3,0x27
    8000570c:	1e1e                	slli	t3,t3,0x27
    8000570e:	1e1e                	slli	t3,t3,0x27
    80005710:	1e1e                	slli	t3,t3,0x27
    80005712:	1e1e                	slli	t3,t3,0x27
    80005714:	1e1e                	slli	t3,t3,0x27
    80005716:	1e1e                	slli	t3,t3,0x27
    80005718:	1e1e                	slli	t3,t3,0x27
    8000571a:	1e1e                	slli	t3,t3,0x27
    8000571c:	1e1e                	slli	t3,t3,0x27
    8000571e:	1e1e                	slli	t3,t3,0x27
    80005720:	1e1e                	slli	t3,t3,0x27
    80005722:	1e1e                	slli	t3,t3,0x27
    80005724:	1e1e                	slli	t3,t3,0x27
    80005726:	1e1e                	slli	t3,t3,0x27
    80005728:	1e1e                	slli	t3,t3,0x27
    8000572a:	1e1e                	slli	t3,t3,0x27
    8000572c:	1e1e                	slli	t3,t3,0x27
    8000572e:	1e1e                	slli	t3,t3,0x27
    80005730:	1e1e                	slli	t3,t3,0x27
    80005732:	1e1e                	slli	t3,t3,0x27
    80005734:	1e1e                	slli	t3,t3,0x27
    80005736:	1e1e                	slli	t3,t3,0x27
    80005738:	1e1e                	slli	t3,t3,0x27
    8000573a:	1e1e                	slli	t3,t3,0x27
    8000573c:	1e1e                	slli	t3,t3,0x27
    8000573e:	1e1e                	slli	t3,t3,0x27
    80005740:	1e1e                	slli	t3,t3,0x27
    80005742:	1e1e                	slli	t3,t3,0x27
    80005744:	1e1e                	slli	t3,t3,0x27
    80005746:	1e1e                	slli	t3,t3,0x27
    80005748:	1e1e                	slli	t3,t3,0x27
    8000574a:	1e1e                	slli	t3,t3,0x27
    8000574c:	1e1e                	slli	t3,t3,0x27
    8000574e:	1e1e                	slli	t3,t3,0x27
    80005750:	1e1e                	slli	t3,t3,0x27
    80005752:	1e1e                	slli	t3,t3,0x27
    80005754:	1e1e                	slli	t3,t3,0x27
    80005756:	1e1e                	slli	t3,t3,0x27
    80005758:	1e1e                	slli	t3,t3,0x27
    8000575a:	1e1e                	slli	t3,t3,0x27
    8000575c:	1e1e                	slli	t3,t3,0x27
    8000575e:	1e1e                	slli	t3,t3,0x27
    80005760:	1e1e                	slli	t3,t3,0x27
    80005762:	1e1e                	slli	t3,t3,0x27
    80005764:	1e1e                	slli	t3,t3,0x27
    80005766:	1e1e                	slli	t3,t3,0x27
    80005768:	1e1e                	slli	t3,t3,0x27
    8000576a:	1e1e                	slli	t3,t3,0x27
    8000576c:	1e1e                	slli	t3,t3,0x27
    8000576e:	1e1e                	slli	t3,t3,0x27
    80005770:	1e1e                	slli	t3,t3,0x27
    80005772:	1e1e                	slli	t3,t3,0x27
    80005774:	1e1e                	slli	t3,t3,0x27
    80005776:	1e1e                	slli	t3,t3,0x27
    80005778:	1e1e                	slli	t3,t3,0x27
    8000577a:	1e1e                	slli	t3,t3,0x27
    8000577c:	1e1e                	slli	t3,t3,0x27
    8000577e:	1e1e                	slli	t3,t3,0x27
    80005780:	1e1e                	slli	t3,t3,0x27
    80005782:	1e1e                	slli	t3,t3,0x27
    80005784:	1e1e                	slli	t3,t3,0x27
    80005786:	1e1e                	slli	t3,t3,0x27
    80005788:	1e1e                	slli	t3,t3,0x27
    8000578a:	1e1e                	slli	t3,t3,0x27
    8000578c:	1e1e                	slli	t3,t3,0x27
    8000578e:	1e1e                	slli	t3,t3,0x27
    80005790:	1e1e                	slli	t3,t3,0x27
    80005792:	1e1e                	slli	t3,t3,0x27
    80005794:	1e1e                	slli	t3,t3,0x27
    80005796:	1e1e                	slli	t3,t3,0x27
    80005798:	1e1e                	slli	t3,t3,0x27
    8000579a:	1e1e                	slli	t3,t3,0x27
    8000579c:	1e1e                	slli	t3,t3,0x27
    8000579e:	1e1e                	slli	t3,t3,0x27
    800057a0:	1e1e                	slli	t3,t3,0x27
    800057a2:	1e1e                	slli	t3,t3,0x27
    800057a4:	1e1e                	slli	t3,t3,0x27
    800057a6:	1e1e                	slli	t3,t3,0x27
    800057a8:	1e1e                	slli	t3,t3,0x27
    800057aa:	1e1e                	slli	t3,t3,0x27
    800057ac:	1e1e                	slli	t3,t3,0x27
    800057ae:	1e1e                	slli	t3,t3,0x27
    800057b0:	1e1e                	slli	t3,t3,0x27
    800057b2:	1e1e                	slli	t3,t3,0x27
    800057b4:	1e1e                	slli	t3,t3,0x27
    800057b6:	1e1e                	slli	t3,t3,0x27
    800057b8:	1e1e                	slli	t3,t3,0x27
    800057ba:	1e1e                	slli	t3,t3,0x27
    800057bc:	1e1e                	slli	t3,t3,0x27
    800057be:	1e1e                	slli	t3,t3,0x27
    800057c0:	1e1e                	slli	t3,t3,0x27
    800057c2:	1e1e                	slli	t3,t3,0x27
    800057c4:	1e1e                	slli	t3,t3,0x27
    800057c6:	1e1e                	slli	t3,t3,0x27
    800057c8:	1e1e                	slli	t3,t3,0x27
    800057ca:	1e1e                	slli	t3,t3,0x27
    800057cc:	1e1e                	slli	t3,t3,0x27
    800057ce:	1e1e                	slli	t3,t3,0x27
    800057d0:	1e1e                	slli	t3,t3,0x27
    800057d2:	1e1e                	slli	t3,t3,0x27
    800057d4:	1e1e                	slli	t3,t3,0x27
    800057d6:	1e1e                	slli	t3,t3,0x27
    800057d8:	1e1e                	slli	t3,t3,0x27
    800057da:	1e1e                	slli	t3,t3,0x27
    800057dc:	1e1e                	slli	t3,t3,0x27
    800057de:	1e1e                	slli	t3,t3,0x27
    800057e0:	1e1e                	slli	t3,t3,0x27
    800057e2:	1e1e                	slli	t3,t3,0x27
    800057e4:	1e1e                	slli	t3,t3,0x27
    800057e6:	1e1e                	slli	t3,t3,0x27
    800057e8:	1e1e                	slli	t3,t3,0x27
    800057ea:	1e1e                	slli	t3,t3,0x27
    800057ec:	1e1e                	slli	t3,t3,0x27
    800057ee:	1e1e                	slli	t3,t3,0x27
    800057f0:	1e1e                	slli	t3,t3,0x27
    800057f2:	1e1e                	slli	t3,t3,0x27
    800057f4:	1e1e                	slli	t3,t3,0x27
    800057f6:	1e1e                	slli	t3,t3,0x27
    800057f8:	1e1e                	slli	t3,t3,0x27
    800057fa:	1e1e                	slli	t3,t3,0x27
    800057fc:	1e1e                	slli	t3,t3,0x27
    800057fe:	1e1e                	slli	t3,t3,0x27
    80005800:	1e1e                	slli	t3,t3,0x27
    80005802:	1e1e                	slli	t3,t3,0x27
    80005804:	1e1e                	slli	t3,t3,0x27
    80005806:	1e1e                	slli	t3,t3,0x27
    80005808:	1e1e                	slli	t3,t3,0x27
    8000580a:	1e1e                	slli	t3,t3,0x27
    8000580c:	1e1e                	slli	t3,t3,0x27
    8000580e:	1e1e                	slli	t3,t3,0x27
    80005810:	1e1e                	slli	t3,t3,0x27
    80005812:	1e1e                	slli	t3,t3,0x27
    80005814:	1e1e                	slli	t3,t3,0x27
    80005816:	1e1e                	slli	t3,t3,0x27
    80005818:	1e1e                	slli	t3,t3,0x27
    8000581a:	1e1e                	slli	t3,t3,0x27
    8000581c:	1e1e                	slli	t3,t3,0x27
    8000581e:	1e1e                	slli	t3,t3,0x27
    80005820:	1e1e                	slli	t3,t3,0x27
    80005822:	1e1e                	slli	t3,t3,0x27
    80005824:	1e1e                	slli	t3,t3,0x27
    80005826:	1e1e                	slli	t3,t3,0x27
    80005828:	1e1e                	slli	t3,t3,0x27
    8000582a:	1e1e                	slli	t3,t3,0x27
    8000582c:	1e1e                	slli	t3,t3,0x27
    8000582e:	1e1e                	slli	t3,t3,0x27
    80005830:	1e1e                	slli	t3,t3,0x27
    80005832:	1e1e                	slli	t3,t3,0x27
    80005834:	1e1e                	slli	t3,t3,0x27
    80005836:	1e1e                	slli	t3,t3,0x27
    80005838:	1e1e                	slli	t3,t3,0x27
    8000583a:	1e1e                	slli	t3,t3,0x27
    8000583c:	1e1e                	slli	t3,t3,0x27
    8000583e:	1e1e                	slli	t3,t3,0x27
    80005840:	1e1e                	slli	t3,t3,0x27
    80005842:	1e1e                	slli	t3,t3,0x27
    80005844:	1e1e                	slli	t3,t3,0x27
    80005846:	1e1e                	slli	t3,t3,0x27
    80005848:	1e1e                	slli	t3,t3,0x27
    8000584a:	1e1e                	slli	t3,t3,0x27
    8000584c:	1e1e                	slli	t3,t3,0x27
    8000584e:	1e1e                	slli	t3,t3,0x27
    80005850:	1e1e                	slli	t3,t3,0x27
    80005852:	1e1e                	slli	t3,t3,0x27
    80005854:	1e1e                	slli	t3,t3,0x27
    80005856:	1e1e                	slli	t3,t3,0x27
    80005858:	1e1e                	slli	t3,t3,0x27
    8000585a:	1e1e                	slli	t3,t3,0x27
    8000585c:	1e1e                	slli	t3,t3,0x27
    8000585e:	1e1e                	slli	t3,t3,0x27
    80005860:	1e1e                	slli	t3,t3,0x27
    80005862:	1e1e                	slli	t3,t3,0x27
    80005864:	1e1e                	slli	t3,t3,0x27
    80005866:	1e1e                	slli	t3,t3,0x27
    80005868:	1e1e                	slli	t3,t3,0x27
    8000586a:	1e1e                	slli	t3,t3,0x27
    8000586c:	1e1e                	slli	t3,t3,0x27
    8000586e:	1e1e                	slli	t3,t3,0x27
    80005870:	1e1e                	slli	t3,t3,0x27
    80005872:	1e1e                	slli	t3,t3,0x27
    80005874:	1e1e                	slli	t3,t3,0x27
    80005876:	1e1e                	slli	t3,t3,0x27
    80005878:	1e1e                	slli	t3,t3,0x27
    8000587a:	1e1e                	slli	t3,t3,0x27
    8000587c:	1e1e                	slli	t3,t3,0x27
    8000587e:	1e1e                	slli	t3,t3,0x27
    80005880:	1e1e                	slli	t3,t3,0x27
    80005882:	1e1e                	slli	t3,t3,0x27
    80005884:	1e1e                	slli	t3,t3,0x27
    80005886:	1e1e                	slli	t3,t3,0x27
    80005888:	1e1e                	slli	t3,t3,0x27
    8000588a:	1e1e                	slli	t3,t3,0x27
    8000588c:	1e1e                	slli	t3,t3,0x27
    8000588e:	1e1e                	slli	t3,t3,0x27
    80005890:	1e1e                	slli	t3,t3,0x27
    80005892:	1e1e                	slli	t3,t3,0x27
    80005894:	1e1e                	slli	t3,t3,0x27
    80005896:	1e1e                	slli	t3,t3,0x27
    80005898:	1e1e                	slli	t3,t3,0x27
    8000589a:	1e1e                	slli	t3,t3,0x27
    8000589c:	1e1e                	slli	t3,t3,0x27
    8000589e:	1e1e                	slli	t3,t3,0x27
    800058a0:	1e1e                	slli	t3,t3,0x27
    800058a2:	1e1e                	slli	t3,t3,0x27
    800058a4:	1e1e                	slli	t3,t3,0x27
    800058a6:	1e1e                	slli	t3,t3,0x27
    800058a8:	1e1e                	slli	t3,t3,0x27
    800058aa:	1e1e                	slli	t3,t3,0x27
    800058ac:	1e1e                	slli	t3,t3,0x27
    800058ae:	1e1e                	slli	t3,t3,0x27
    800058b0:	1e1e                	slli	t3,t3,0x27
    800058b2:	1e1e                	slli	t3,t3,0x27
    800058b4:	1e1e                	slli	t3,t3,0x27
    800058b6:	1e1e                	slli	t3,t3,0x27
    800058b8:	1e1e                	slli	t3,t3,0x27
    800058ba:	1e1e                	slli	t3,t3,0x27
    800058bc:	1e1e                	slli	t3,t3,0x27
    800058be:	1e1e                	slli	t3,t3,0x27
    800058c0:	1e1e                	slli	t3,t3,0x27
    800058c2:	1e1e                	slli	t3,t3,0x27
    800058c4:	1e1e                	slli	t3,t3,0x27
    800058c6:	1e1e                	slli	t3,t3,0x27
    800058c8:	1e1e                	slli	t3,t3,0x27
    800058ca:	1e1e                	slli	t3,t3,0x27
    800058cc:	1e1e                	slli	t3,t3,0x27
    800058ce:	1e1e                	slli	t3,t3,0x27
    800058d0:	1e1e                	slli	t3,t3,0x27
    800058d2:	1e1e                	slli	t3,t3,0x27
    800058d4:	1e1e                	slli	t3,t3,0x27
    800058d6:	1e1e                	slli	t3,t3,0x27
    800058d8:	1e1e                	slli	t3,t3,0x27
    800058da:	1e1e                	slli	t3,t3,0x27
    800058dc:	1e1e                	slli	t3,t3,0x27
    800058de:	1e1e                	slli	t3,t3,0x27
    800058e0:	1e1e                	slli	t3,t3,0x27
    800058e2:	1e1e                	slli	t3,t3,0x27
    800058e4:	1e1e                	slli	t3,t3,0x27
    800058e6:	1e1e                	slli	t3,t3,0x27
    800058e8:	1e1e                	slli	t3,t3,0x27
    800058ea:	1e1e                	slli	t3,t3,0x27
    800058ec:	1e1e                	slli	t3,t3,0x27
    800058ee:	1e1e                	slli	t3,t3,0x27
    800058f0:	1e1e                	slli	t3,t3,0x27
    800058f2:	1e1e                	slli	t3,t3,0x27
    800058f4:	1e1e                	slli	t3,t3,0x27
    800058f6:	1e1e                	slli	t3,t3,0x27
    800058f8:	1e1e                	slli	t3,t3,0x27
    800058fa:	1e1e                	slli	t3,t3,0x27
    800058fc:	1e1e                	slli	t3,t3,0x27
    800058fe:	1e1e                	slli	t3,t3,0x27
    80005900:	1e1e                	slli	t3,t3,0x27
    80005902:	1e1e                	slli	t3,t3,0x27
    80005904:	1e1e                	slli	t3,t3,0x27
    80005906:	1e1e                	slli	t3,t3,0x27
    80005908:	1e1e                	slli	t3,t3,0x27
    8000590a:	1e1e                	slli	t3,t3,0x27
    8000590c:	1e1e                	slli	t3,t3,0x27
    8000590e:	1e1e                	slli	t3,t3,0x27
    80005910:	1e1e                	slli	t3,t3,0x27
    80005912:	1e1e                	slli	t3,t3,0x27
    80005914:	1e1e                	slli	t3,t3,0x27
    80005916:	1e1e                	slli	t3,t3,0x27
    80005918:	1e1e                	slli	t3,t3,0x27
    8000591a:	1e1e                	slli	t3,t3,0x27
    8000591c:	1e1e                	slli	t3,t3,0x27
    8000591e:	1e1e                	slli	t3,t3,0x27
    80005920:	1e1e                	slli	t3,t3,0x27
    80005922:	1e1e                	slli	t3,t3,0x27
    80005924:	1e1e                	slli	t3,t3,0x27
    80005926:	1e1e                	slli	t3,t3,0x27
    80005928:	1e1e                	slli	t3,t3,0x27
    8000592a:	1e1e                	slli	t3,t3,0x27
    8000592c:	1e1e                	slli	t3,t3,0x27
    8000592e:	1e1e                	slli	t3,t3,0x27
    80005930:	1e1e                	slli	t3,t3,0x27
    80005932:	1e1e                	slli	t3,t3,0x27
    80005934:	1e1e                	slli	t3,t3,0x27
    80005936:	1e1e                	slli	t3,t3,0x27
    80005938:	1e1e                	slli	t3,t3,0x27
    8000593a:	1e1e                	slli	t3,t3,0x27
    8000593c:	1e1e                	slli	t3,t3,0x27
    8000593e:	1e1e                	slli	t3,t3,0x27
    80005940:	1e1e                	slli	t3,t3,0x27
    80005942:	1e1e                	slli	t3,t3,0x27
    80005944:	1e1e                	slli	t3,t3,0x27
    80005946:	1e1e                	slli	t3,t3,0x27
    80005948:	1e1e                	slli	t3,t3,0x27
    8000594a:	1e1e                	slli	t3,t3,0x27
    8000594c:	1e1e                	slli	t3,t3,0x27
    8000594e:	1e1e                	slli	t3,t3,0x27
    80005950:	1e1e                	slli	t3,t3,0x27
    80005952:	1e1e                	slli	t3,t3,0x27
    80005954:	1e1e                	slli	t3,t3,0x27
    80005956:	1e1e                	slli	t3,t3,0x27
    80005958:	1e1e                	slli	t3,t3,0x27
    8000595a:	1e1e                	slli	t3,t3,0x27
    8000595c:	1e1e                	slli	t3,t3,0x27
    8000595e:	1e1e                	slli	t3,t3,0x27
    80005960:	1e1e                	slli	t3,t3,0x27
    80005962:	1e1e                	slli	t3,t3,0x27
    80005964:	1e1e                	slli	t3,t3,0x27
    80005966:	1e1e                	slli	t3,t3,0x27
    80005968:	1e1e                	slli	t3,t3,0x27
    8000596a:	1e1e                	slli	t3,t3,0x27
    8000596c:	1e1e                	slli	t3,t3,0x27
    8000596e:	1e1e                	slli	t3,t3,0x27
    80005970:	1e1e                	slli	t3,t3,0x27
    80005972:	1e1e                	slli	t3,t3,0x27
    80005974:	1e1e                	slli	t3,t3,0x27
    80005976:	1e1e                	slli	t3,t3,0x27
    80005978:	1e1e                	slli	t3,t3,0x27
    8000597a:	1e1e                	slli	t3,t3,0x27
    8000597c:	1e1e                	slli	t3,t3,0x27
    8000597e:	1e1e                	slli	t3,t3,0x27
    80005980:	1e1e                	slli	t3,t3,0x27
    80005982:	1e1e                	slli	t3,t3,0x27
    80005984:	1e1e                	slli	t3,t3,0x27
    80005986:	1e1e                	slli	t3,t3,0x27
    80005988:	1e1e                	slli	t3,t3,0x27
    8000598a:	1e1e                	slli	t3,t3,0x27
    8000598c:	1e1e                	slli	t3,t3,0x27
    8000598e:	1e1e                	slli	t3,t3,0x27
    80005990:	1e1e                	slli	t3,t3,0x27
    80005992:	1e1e                	slli	t3,t3,0x27
    80005994:	1e1e                	slli	t3,t3,0x27
    80005996:	1e1e                	slli	t3,t3,0x27
    80005998:	1e1e                	slli	t3,t3,0x27
    8000599a:	1e1e                	slli	t3,t3,0x27
    8000599c:	1e1e                	slli	t3,t3,0x27
    8000599e:	1e1e                	slli	t3,t3,0x27
    800059a0:	1e1e                	slli	t3,t3,0x27
    800059a2:	1e1e                	slli	t3,t3,0x27
    800059a4:	1e1e                	slli	t3,t3,0x27
    800059a6:	1e1e                	slli	t3,t3,0x27
    800059a8:	1e1e                	slli	t3,t3,0x27
    800059aa:	1e1e                	slli	t3,t3,0x27
    800059ac:	1e1e                	slli	t3,t3,0x27
    800059ae:	1e1e                	slli	t3,t3,0x27
    800059b0:	1e1e                	slli	t3,t3,0x27
    800059b2:	1e1e                	slli	t3,t3,0x27
    800059b4:	1e1e                	slli	t3,t3,0x27
    800059b6:	1e1e                	slli	t3,t3,0x27
    800059b8:	1e1e                	slli	t3,t3,0x27
    800059ba:	1e1e                	slli	t3,t3,0x27
    800059bc:	1e1e                	slli	t3,t3,0x27
    800059be:	1e1e                	slli	t3,t3,0x27
    800059c0:	1e1e                	slli	t3,t3,0x27
    800059c2:	1e1e                	slli	t3,t3,0x27
    800059c4:	1e1e                	slli	t3,t3,0x27
    800059c6:	1e1e                	slli	t3,t3,0x27
    800059c8:	1e1e                	slli	t3,t3,0x27
    800059ca:	1e1e                	slli	t3,t3,0x27
    800059cc:	1e1e                	slli	t3,t3,0x27
    800059ce:	1e1e                	slli	t3,t3,0x27
    800059d0:	1e1e                	slli	t3,t3,0x27
    800059d2:	1e1e                	slli	t3,t3,0x27
    800059d4:	1e1e                	slli	t3,t3,0x27
    800059d6:	1e1e                	slli	t3,t3,0x27
    800059d8:	1e1e                	slli	t3,t3,0x27
    800059da:	1e1e                	slli	t3,t3,0x27
    800059dc:	1e1e                	slli	t3,t3,0x27
    800059de:	1e1e                	slli	t3,t3,0x27
    800059e0:	1e1e                	slli	t3,t3,0x27
    800059e2:	1e1e                	slli	t3,t3,0x27
    800059e4:	1e1e                	slli	t3,t3,0x27
    800059e6:	1e1e                	slli	t3,t3,0x27
    800059e8:	1e1e                	slli	t3,t3,0x27
    800059ea:	1e1e                	slli	t3,t3,0x27
    800059ec:	1e1e                	slli	t3,t3,0x27
    800059ee:	1e1e                	slli	t3,t3,0x27
    800059f0:	1e1e                	slli	t3,t3,0x27
    800059f2:	1e1e                	slli	t3,t3,0x27
    800059f4:	1e1e                	slli	t3,t3,0x27
    800059f6:	1e1e                	slli	t3,t3,0x27
    800059f8:	1e1e                	slli	t3,t3,0x27
    800059fa:	1e1e                	slli	t3,t3,0x27
    800059fc:	1e1e                	slli	t3,t3,0x27
    800059fe:	1e1e                	slli	t3,t3,0x27
    80005a00:	1e1e                	slli	t3,t3,0x27
    80005a02:	1e1e                	slli	t3,t3,0x27
    80005a04:	1e1e                	slli	t3,t3,0x27
    80005a06:	1e1e                	slli	t3,t3,0x27
    80005a08:	1e1e                	slli	t3,t3,0x27
    80005a0a:	1e1e                	slli	t3,t3,0x27
    80005a0c:	1e1e                	slli	t3,t3,0x27
    80005a0e:	1e1e                	slli	t3,t3,0x27
    80005a10:	1e1e                	slli	t3,t3,0x27
    80005a12:	1e1e                	slli	t3,t3,0x27
    80005a14:	1e1e                	slli	t3,t3,0x27
    80005a16:	1e1e                	slli	t3,t3,0x27
    80005a18:	1e1e                	slli	t3,t3,0x27
    80005a1a:	1e1e                	slli	t3,t3,0x27
    80005a1c:	1e1e                	slli	t3,t3,0x27
    80005a1e:	1e1e                	slli	t3,t3,0x27
    80005a20:	1e1e                	slli	t3,t3,0x27
    80005a22:	1e1e                	slli	t3,t3,0x27
    80005a24:	1e1e                	slli	t3,t3,0x27
    80005a26:	1e1e                	slli	t3,t3,0x27
    80005a28:	1e1e                	slli	t3,t3,0x27
    80005a2a:	1e1e                	slli	t3,t3,0x27
    80005a2c:	1e1e                	slli	t3,t3,0x27
    80005a2e:	1e1e                	slli	t3,t3,0x27
    80005a30:	1e1e                	slli	t3,t3,0x27
    80005a32:	1e1e                	slli	t3,t3,0x27
    80005a34:	1e1e                	slli	t3,t3,0x27
    80005a36:	1e1e                	slli	t3,t3,0x27
    80005a38:	1e1e                	slli	t3,t3,0x27
    80005a3a:	1e1e                	slli	t3,t3,0x27
    80005a3c:	1e1e                	slli	t3,t3,0x27
    80005a3e:	1e1e                	slli	t3,t3,0x27
    80005a40:	1e1e                	slli	t3,t3,0x27
    80005a42:	1e1e                	slli	t3,t3,0x27
    80005a44:	1e1e                	slli	t3,t3,0x27
    80005a46:	1e1e                	slli	t3,t3,0x27
    80005a48:	1e1e                	slli	t3,t3,0x27
    80005a4a:	1e1e                	slli	t3,t3,0x27
    80005a4c:	1e1e                	slli	t3,t3,0x27
    80005a4e:	1e1e                	slli	t3,t3,0x27
    80005a50:	1e1e                	slli	t3,t3,0x27
    80005a52:	1e1e                	slli	t3,t3,0x27
    80005a54:	1e1e                	slli	t3,t3,0x27
    80005a56:	1e1e                	slli	t3,t3,0x27
    80005a58:	1e1e                	slli	t3,t3,0x27
    80005a5a:	1e1e                	slli	t3,t3,0x27
    80005a5c:	1e1e                	slli	t3,t3,0x27
    80005a5e:	1e1e                	slli	t3,t3,0x27
    80005a60:	1e1e                	slli	t3,t3,0x27
    80005a62:	1e1e                	slli	t3,t3,0x27
    80005a64:	1e1e                	slli	t3,t3,0x27
    80005a66:	1e1e                	slli	t3,t3,0x27
    80005a68:	1e1e                	slli	t3,t3,0x27
    80005a6a:	1e1e                	slli	t3,t3,0x27
    80005a6c:	1e1e                	slli	t3,t3,0x27
    80005a6e:	1e1e                	slli	t3,t3,0x27
    80005a70:	1e1e                	slli	t3,t3,0x27
    80005a72:	1e1e                	slli	t3,t3,0x27
    80005a74:	1e1e                	slli	t3,t3,0x27
    80005a76:	1e1e                	slli	t3,t3,0x27
    80005a78:	1e1e                	slli	t3,t3,0x27
    80005a7a:	1e1e                	slli	t3,t3,0x27
    80005a7c:	1e1e                	slli	t3,t3,0x27
    80005a7e:	1e1e                	slli	t3,t3,0x27
    80005a80:	1e1e                	slli	t3,t3,0x27
    80005a82:	1e1e                	slli	t3,t3,0x27
    80005a84:	1e1e                	slli	t3,t3,0x27
    80005a86:	1e1e                	slli	t3,t3,0x27
    80005a88:	1e1e                	slli	t3,t3,0x27
    80005a8a:	1e1e                	slli	t3,t3,0x27
    80005a8c:	1e1e                	slli	t3,t3,0x27
    80005a8e:	1e1e                	slli	t3,t3,0x27
    80005a90:	1e1e                	slli	t3,t3,0x27
    80005a92:	1e1e                	slli	t3,t3,0x27
    80005a94:	1e1e                	slli	t3,t3,0x27
    80005a96:	1e1e                	slli	t3,t3,0x27
    80005a98:	1e1e                	slli	t3,t3,0x27
    80005a9a:	1e1e                	slli	t3,t3,0x27
    80005a9c:	1e1e                	slli	t3,t3,0x27
    80005a9e:	1e1e                	slli	t3,t3,0x27
    80005aa0:	1e1e                	slli	t3,t3,0x27
    80005aa2:	1e1e                	slli	t3,t3,0x27
    80005aa4:	1e1e                	slli	t3,t3,0x27
    80005aa6:	1e1e                	slli	t3,t3,0x27
    80005aa8:	1e1e                	slli	t3,t3,0x27
    80005aaa:	1e1e                	slli	t3,t3,0x27
    80005aac:	1e1e                	slli	t3,t3,0x27
    80005aae:	1e1e                	slli	t3,t3,0x27
    80005ab0:	1e1e                	slli	t3,t3,0x27
    80005ab2:	1e1e                	slli	t3,t3,0x27
    80005ab4:	1e1e                	slli	t3,t3,0x27
    80005ab6:	1e1e                	slli	t3,t3,0x27
    80005ab8:	1e1e                	slli	t3,t3,0x27
    80005aba:	1e1e                	slli	t3,t3,0x27
    80005abc:	1e1e                	slli	t3,t3,0x27
    80005abe:	1e1e                	slli	t3,t3,0x27
    80005ac0:	1e1e                	slli	t3,t3,0x27
    80005ac2:	1e1e                	slli	t3,t3,0x27
    80005ac4:	1e1e                	slli	t3,t3,0x27
    80005ac6:	1e1e                	slli	t3,t3,0x27
    80005ac8:	1e1e                	slli	t3,t3,0x27
    80005aca:	1e1e                	slli	t3,t3,0x27
    80005acc:	1e1e                	slli	t3,t3,0x27
    80005ace:	1e1e                	slli	t3,t3,0x27
    80005ad0:	1e1e                	slli	t3,t3,0x27
    80005ad2:	1e1e                	slli	t3,t3,0x27
    80005ad4:	1e1e                	slli	t3,t3,0x27
    80005ad6:	1e1e                	slli	t3,t3,0x27
    80005ad8:	1e1e                	slli	t3,t3,0x27
    80005ada:	1e1e                	slli	t3,t3,0x27
    80005adc:	1e1e                	slli	t3,t3,0x27
    80005ade:	1e1e                	slli	t3,t3,0x27
    80005ae0:	1e1e                	slli	t3,t3,0x27
    80005ae2:	1e1e                	slli	t3,t3,0x27
    80005ae4:	1e1e                	slli	t3,t3,0x27
    80005ae6:	1e1e                	slli	t3,t3,0x27
    80005ae8:	1e1e                	slli	t3,t3,0x27
    80005aea:	1e1e                	slli	t3,t3,0x27
    80005aec:	1e1e                	slli	t3,t3,0x27
    80005aee:	1e1e                	slli	t3,t3,0x27
    80005af0:	1e1e                	slli	t3,t3,0x27
    80005af2:	1e1e                	slli	t3,t3,0x27
    80005af4:	1e1e                	slli	t3,t3,0x27
    80005af6:	1e1e                	slli	t3,t3,0x27
    80005af8:	1e1e                	slli	t3,t3,0x27
    80005afa:	1e1e                	slli	t3,t3,0x27
    80005afc:	1e1e                	slli	t3,t3,0x27
    80005afe:	1e1e                	slli	t3,t3,0x27
    80005b00:	1e1e                	slli	t3,t3,0x27
    80005b02:	1e1e                	slli	t3,t3,0x27
    80005b04:	1e1e                	slli	t3,t3,0x27
    80005b06:	1e1e                	slli	t3,t3,0x27
    80005b08:	1e1e                	slli	t3,t3,0x27
    80005b0a:	1e1e                	slli	t3,t3,0x27
    80005b0c:	1e1e                	slli	t3,t3,0x27
    80005b0e:	1e1e                	slli	t3,t3,0x27
    80005b10:	1e1e                	slli	t3,t3,0x27
    80005b12:	1e1e                	slli	t3,t3,0x27
    80005b14:	1e1e                	slli	t3,t3,0x27
    80005b16:	1e1e                	slli	t3,t3,0x27
    80005b18:	1e1e                	slli	t3,t3,0x27
    80005b1a:	1e1e                	slli	t3,t3,0x27
    80005b1c:	1e1e                	slli	t3,t3,0x27
    80005b1e:	1e1e                	slli	t3,t3,0x27
    80005b20:	1e1e                	slli	t3,t3,0x27
    80005b22:	1e1e                	slli	t3,t3,0x27
    80005b24:	1e1e                	slli	t3,t3,0x27
    80005b26:	1e1e                	slli	t3,t3,0x27
    80005b28:	1e1e                	slli	t3,t3,0x27
    80005b2a:	1e1e                	slli	t3,t3,0x27
    80005b2c:	1e1e                	slli	t3,t3,0x27
    80005b2e:	1e1e                	slli	t3,t3,0x27
    80005b30:	1e1e                	slli	t3,t3,0x27
    80005b32:	1e1e                	slli	t3,t3,0x27
    80005b34:	1e1e                	slli	t3,t3,0x27
    80005b36:	1e1e                	slli	t3,t3,0x27
    80005b38:	1e1e                	slli	t3,t3,0x27
    80005b3a:	1e1e                	slli	t3,t3,0x27
    80005b3c:	1e1e                	slli	t3,t3,0x27
    80005b3e:	1e1e                	slli	t3,t3,0x27
    80005b40:	1e1e                	slli	t3,t3,0x27
    80005b42:	1e1e                	slli	t3,t3,0x27
    80005b44:	1e1e                	slli	t3,t3,0x27
    80005b46:	1e1e                	slli	t3,t3,0x27
    80005b48:	1e1e                	slli	t3,t3,0x27
    80005b4a:	1e1e                	slli	t3,t3,0x27
    80005b4c:	1e1e                	slli	t3,t3,0x27
    80005b4e:	1e1e                	slli	t3,t3,0x27
    80005b50:	1e1e                	slli	t3,t3,0x27
    80005b52:	1e1e                	slli	t3,t3,0x27
    80005b54:	1e1e                	slli	t3,t3,0x27
    80005b56:	1e1e                	slli	t3,t3,0x27
    80005b58:	1e1e                	slli	t3,t3,0x27
    80005b5a:	1e1e                	slli	t3,t3,0x27
    80005b5c:	1e1e                	slli	t3,t3,0x27
    80005b5e:	1e1e                	slli	t3,t3,0x27
    80005b60:	1e1e                	slli	t3,t3,0x27
    80005b62:	1e1e                	slli	t3,t3,0x27
    80005b64:	1e1e                	slli	t3,t3,0x27
    80005b66:	1e1e                	slli	t3,t3,0x27
    80005b68:	1e1e                	slli	t3,t3,0x27
    80005b6a:	1e1e                	slli	t3,t3,0x27
    80005b6c:	1e1e                	slli	t3,t3,0x27
    80005b6e:	1e1e                	slli	t3,t3,0x27
    80005b70:	1e1e                	slli	t3,t3,0x27
    80005b72:	1e1e                	slli	t3,t3,0x27
    80005b74:	1e1e                	slli	t3,t3,0x27
    80005b76:	1e1e                	slli	t3,t3,0x27
    80005b78:	1e1e                	slli	t3,t3,0x27
    80005b7a:	1e1e                	slli	t3,t3,0x27
    80005b7c:	1e1e                	slli	t3,t3,0x27
    80005b7e:	1e1e                	slli	t3,t3,0x27
    80005b80:	1e1e                	slli	t3,t3,0x27
    80005b82:	1e1e                	slli	t3,t3,0x27
    80005b84:	1e1e                	slli	t3,t3,0x27
    80005b86:	1e1e                	slli	t3,t3,0x27
    80005b88:	1e1e                	slli	t3,t3,0x27
    80005b8a:	1e1e                	slli	t3,t3,0x27
    80005b8c:	1e1e                	slli	t3,t3,0x27
    80005b8e:	1e1e                	slli	t3,t3,0x27
    80005b90:	1e1e                	slli	t3,t3,0x27
    80005b92:	1e1e                	slli	t3,t3,0x27
    80005b94:	1e1e                	slli	t3,t3,0x27
    80005b96:	1e1e                	slli	t3,t3,0x27
    80005b98:	1e1e                	slli	t3,t3,0x27
    80005b9a:	1e1e                	slli	t3,t3,0x27
    80005b9c:	1e1e                	slli	t3,t3,0x27
    80005b9e:	1e1e                	slli	t3,t3,0x27
    80005ba0:	1e1e                	slli	t3,t3,0x27
    80005ba2:	1e1e                	slli	t3,t3,0x27
    80005ba4:	1e1e                	slli	t3,t3,0x27
    80005ba6:	1e1e                	slli	t3,t3,0x27
    80005ba8:	1e1e                	slli	t3,t3,0x27
    80005baa:	1e1e                	slli	t3,t3,0x27
    80005bac:	1e1e                	slli	t3,t3,0x27
    80005bae:	1e1e                	slli	t3,t3,0x27
    80005bb0:	1e1e                	slli	t3,t3,0x27
    80005bb2:	1e1e                	slli	t3,t3,0x27
    80005bb4:	1e1e                	slli	t3,t3,0x27
    80005bb6:	1e1e                	slli	t3,t3,0x27
    80005bb8:	1e1e                	slli	t3,t3,0x27
    80005bba:	1e1e                	slli	t3,t3,0x27
    80005bbc:	1e1e                	slli	t3,t3,0x27
    80005bbe:	1e1e                	slli	t3,t3,0x27
    80005bc0:	1e1e                	slli	t3,t3,0x27
    80005bc2:	1e1e                	slli	t3,t3,0x27
    80005bc4:	1e1e                	slli	t3,t3,0x27
    80005bc6:	1e1e                	slli	t3,t3,0x27
    80005bc8:	1e1e                	slli	t3,t3,0x27
    80005bca:	1e1e                	slli	t3,t3,0x27
    80005bcc:	1e1e                	slli	t3,t3,0x27
    80005bce:	1e1e                	slli	t3,t3,0x27
    80005bd0:	1e1e                	slli	t3,t3,0x27
    80005bd2:	1e1e                	slli	t3,t3,0x27
    80005bd4:	1e1e                	slli	t3,t3,0x27
    80005bd6:	1e1e                	slli	t3,t3,0x27
    80005bd8:	1e1e                	slli	t3,t3,0x27
    80005bda:	1e1e                	slli	t3,t3,0x27
    80005bdc:	1e1e                	slli	t3,t3,0x27
    80005bde:	1e1e                	slli	t3,t3,0x27
    80005be0:	1e1e                	slli	t3,t3,0x27
    80005be2:	1e1e                	slli	t3,t3,0x27
    80005be4:	1e1e                	slli	t3,t3,0x27
    80005be6:	1e1e                	slli	t3,t3,0x27
    80005be8:	1e1e                	slli	t3,t3,0x27
    80005bea:	1e1e                	slli	t3,t3,0x27
    80005bec:	1e1e                	slli	t3,t3,0x27
    80005bee:	1e1e                	slli	t3,t3,0x27
    80005bf0:	1e1e                	slli	t3,t3,0x27
    80005bf2:	1e1e                	slli	t3,t3,0x27
    80005bf4:	1e1e                	slli	t3,t3,0x27
    80005bf6:	1e1e                	slli	t3,t3,0x27
    80005bf8:	1e1e                	slli	t3,t3,0x27
    80005bfa:	1e1e                	slli	t3,t3,0x27
    80005bfc:	1e1e                	slli	t3,t3,0x27
    80005bfe:	1e1e                	slli	t3,t3,0x27
    80005c00:	1e1e                	slli	t3,t3,0x27
    80005c02:	1e1e                	slli	t3,t3,0x27
    80005c04:	1e1e                	slli	t3,t3,0x27
    80005c06:	1e1e                	slli	t3,t3,0x27
    80005c08:	1e1e                	slli	t3,t3,0x27
    80005c0a:	1e1e                	slli	t3,t3,0x27
    80005c0c:	1e1e                	slli	t3,t3,0x27
    80005c0e:	1e1e                	slli	t3,t3,0x27
    80005c10:	1e1e                	slli	t3,t3,0x27
    80005c12:	1e1e                	slli	t3,t3,0x27
    80005c14:	1e1e                	slli	t3,t3,0x27
    80005c16:	1e1e                	slli	t3,t3,0x27
    80005c18:	1e1e                	slli	t3,t3,0x27
    80005c1a:	1e1e                	slli	t3,t3,0x27
    80005c1c:	1e1e                	slli	t3,t3,0x27
    80005c1e:	1e1e                	slli	t3,t3,0x27
    80005c20:	1e1e                	slli	t3,t3,0x27
    80005c22:	1e1e                	slli	t3,t3,0x27
    80005c24:	1e1e                	slli	t3,t3,0x27
    80005c26:	1e1e                	slli	t3,t3,0x27
    80005c28:	1e1e                	slli	t3,t3,0x27
    80005c2a:	1e1e                	slli	t3,t3,0x27
    80005c2c:	1e1e                	slli	t3,t3,0x27
    80005c2e:	1e1e                	slli	t3,t3,0x27
    80005c30:	1e1e                	slli	t3,t3,0x27
    80005c32:	1e1e                	slli	t3,t3,0x27
    80005c34:	1e1e                	slli	t3,t3,0x27
    80005c36:	1e1e                	slli	t3,t3,0x27
    80005c38:	1e1e                	slli	t3,t3,0x27
    80005c3a:	1e1e                	slli	t3,t3,0x27
    80005c3c:	1e1e                	slli	t3,t3,0x27
    80005c3e:	1e1e                	slli	t3,t3,0x27
    80005c40:	1e1e                	slli	t3,t3,0x27
    80005c42:	1e1e                	slli	t3,t3,0x27
    80005c44:	1e1e                	slli	t3,t3,0x27
    80005c46:	1e1e                	slli	t3,t3,0x27
    80005c48:	1e1e                	slli	t3,t3,0x27
    80005c4a:	1e1e                	slli	t3,t3,0x27
    80005c4c:	1e1e                	slli	t3,t3,0x27
    80005c4e:	1e1e                	slli	t3,t3,0x27
    80005c50:	1e1e                	slli	t3,t3,0x27
    80005c52:	1e1e                	slli	t3,t3,0x27
    80005c54:	1e1e                	slli	t3,t3,0x27
    80005c56:	1e1e                	slli	t3,t3,0x27
    80005c58:	1e1e                	slli	t3,t3,0x27
    80005c5a:	1e1e                	slli	t3,t3,0x27
    80005c5c:	1e1e                	slli	t3,t3,0x27
    80005c5e:	1e1e                	slli	t3,t3,0x27
    80005c60:	1e1e                	slli	t3,t3,0x27
    80005c62:	1e1e                	slli	t3,t3,0x27
    80005c64:	1e1e                	slli	t3,t3,0x27
    80005c66:	1e1e                	slli	t3,t3,0x27
    80005c68:	1e1e                	slli	t3,t3,0x27
    80005c6a:	1e1e                	slli	t3,t3,0x27
    80005c6c:	1e1e                	slli	t3,t3,0x27
    80005c6e:	1e1e                	slli	t3,t3,0x27
    80005c70:	1e1e                	slli	t3,t3,0x27
    80005c72:	1e1e                	slli	t3,t3,0x27
    80005c74:	1e1e                	slli	t3,t3,0x27
    80005c76:	1e1e                	slli	t3,t3,0x27
    80005c78:	1e1e                	slli	t3,t3,0x27
    80005c7a:	1e1e                	slli	t3,t3,0x27
    80005c7c:	1e1e                	slli	t3,t3,0x27
    80005c7e:	1e1e                	slli	t3,t3,0x27
    80005c80:	1e1e                	slli	t3,t3,0x27
    80005c82:	1e1e                	slli	t3,t3,0x27
    80005c84:	1e1e                	slli	t3,t3,0x27
    80005c86:	1e1e                	slli	t3,t3,0x27
    80005c88:	1e1e                	slli	t3,t3,0x27
    80005c8a:	1e1e                	slli	t3,t3,0x27
    80005c8c:	1e1e                	slli	t3,t3,0x27
    80005c8e:	1e1e                	slli	t3,t3,0x27
    80005c90:	1e1e                	slli	t3,t3,0x27
    80005c92:	1e1e                	slli	t3,t3,0x27
    80005c94:	1e1e                	slli	t3,t3,0x27
    80005c96:	1e1e                	slli	t3,t3,0x27
    80005c98:	1e1e                	slli	t3,t3,0x27
    80005c9a:	1e1e                	slli	t3,t3,0x27
    80005c9c:	1e1e                	slli	t3,t3,0x27
    80005c9e:	1e1e                	slli	t3,t3,0x27
    80005ca0:	1e1e                	slli	t3,t3,0x27
    80005ca2:	1e1e                	slli	t3,t3,0x27
    80005ca4:	1e1e                	slli	t3,t3,0x27
    80005ca6:	1e1e                	slli	t3,t3,0x27
    80005ca8:	1e1e                	slli	t3,t3,0x27
    80005caa:	1e1e                	slli	t3,t3,0x27
    80005cac:	1e1e                	slli	t3,t3,0x27
    80005cae:	1e1e                	slli	t3,t3,0x27
    80005cb0:	1e1e                	slli	t3,t3,0x27
    80005cb2:	1e1e                	slli	t3,t3,0x27
    80005cb4:	1e1e                	slli	t3,t3,0x27
    80005cb6:	1e1e                	slli	t3,t3,0x27
    80005cb8:	1e1e                	slli	t3,t3,0x27
    80005cba:	1e1e                	slli	t3,t3,0x27
    80005cbc:	1e1e                	slli	t3,t3,0x27
    80005cbe:	1e1e                	slli	t3,t3,0x27
    80005cc0:	1e1e                	slli	t3,t3,0x27
    80005cc2:	1e1e                	slli	t3,t3,0x27
    80005cc4:	1e1e                	slli	t3,t3,0x27
    80005cc6:	1e1e                	slli	t3,t3,0x27
    80005cc8:	1e1e                	slli	t3,t3,0x27
    80005cca:	1e1e                	slli	t3,t3,0x27
    80005ccc:	1e1e                	slli	t3,t3,0x27
    80005cce:	1e1e                	slli	t3,t3,0x27
    80005cd0:	1e1e                	slli	t3,t3,0x27
    80005cd2:	1e1e                	slli	t3,t3,0x27
    80005cd4:	1e1e                	slli	t3,t3,0x27
    80005cd6:	1e1e                	slli	t3,t3,0x27
    80005cd8:	1e1e                	slli	t3,t3,0x27
    80005cda:	1e1e                	slli	t3,t3,0x27
    80005cdc:	1e1e                	slli	t3,t3,0x27
    80005cde:	1e1e                	slli	t3,t3,0x27
    80005ce0:	1e1e                	slli	t3,t3,0x27
    80005ce2:	1e1e                	slli	t3,t3,0x27
    80005ce4:	1e1e                	slli	t3,t3,0x27
    80005ce6:	1e1e                	slli	t3,t3,0x27
    80005ce8:	1e1e                	slli	t3,t3,0x27
    80005cea:	1e1e                	slli	t3,t3,0x27
    80005cec:	1e1e                	slli	t3,t3,0x27
    80005cee:	1e1e                	slli	t3,t3,0x27
    80005cf0:	1e1e                	slli	t3,t3,0x27
    80005cf2:	1e1e                	slli	t3,t3,0x27
    80005cf4:	1e1e                	slli	t3,t3,0x27
    80005cf6:	1e1e                	slli	t3,t3,0x27
    80005cf8:	1e1e                	slli	t3,t3,0x27
    80005cfa:	1e1e                	slli	t3,t3,0x27
    80005cfc:	1e1e                	slli	t3,t3,0x27
    80005cfe:	1e1e                	slli	t3,t3,0x27
    80005d00:	1e1e                	slli	t3,t3,0x27
    80005d02:	1e1e                	slli	t3,t3,0x27
    80005d04:	1e1e                	slli	t3,t3,0x27
    80005d06:	1e1e                	slli	t3,t3,0x27
    80005d08:	1e1e                	slli	t3,t3,0x27
    80005d0a:	1e1e                	slli	t3,t3,0x27
    80005d0c:	1e1e                	slli	t3,t3,0x27
    80005d0e:	1e1e                	slli	t3,t3,0x27
    80005d10:	1e1e                	slli	t3,t3,0x27
    80005d12:	1e1e                	slli	t3,t3,0x27
    80005d14:	1e1e                	slli	t3,t3,0x27
    80005d16:	1e1e                	slli	t3,t3,0x27
    80005d18:	1e1e                	slli	t3,t3,0x27
    80005d1a:	1e1e                	slli	t3,t3,0x27
    80005d1c:	1e1e                	slli	t3,t3,0x27
    80005d1e:	1e1e                	slli	t3,t3,0x27
    80005d20:	1e1e                	slli	t3,t3,0x27
    80005d22:	1e1e                	slli	t3,t3,0x27
    80005d24:	1e1e                	slli	t3,t3,0x27
    80005d26:	1e1e                	slli	t3,t3,0x27
    80005d28:	1e1e                	slli	t3,t3,0x27
    80005d2a:	1e1e                	slli	t3,t3,0x27
    80005d2c:	1e1e                	slli	t3,t3,0x27
    80005d2e:	1e1e                	slli	t3,t3,0x27
    80005d30:	1e1e                	slli	t3,t3,0x27
    80005d32:	1e1e                	slli	t3,t3,0x27
    80005d34:	1e1e                	slli	t3,t3,0x27
    80005d36:	1e1e                	slli	t3,t3,0x27
    80005d38:	1e1e                	slli	t3,t3,0x27
    80005d3a:	1e1e                	slli	t3,t3,0x27
    80005d3c:	1e1e                	slli	t3,t3,0x27
    80005d3e:	1e1e                	slli	t3,t3,0x27
    80005d40:	1e1e                	slli	t3,t3,0x27
    80005d42:	1e1e                	slli	t3,t3,0x27
    80005d44:	1e1e                	slli	t3,t3,0x27
    80005d46:	1e1e                	slli	t3,t3,0x27
    80005d48:	1e1e                	slli	t3,t3,0x27
    80005d4a:	1e1e                	slli	t3,t3,0x27
    80005d4c:	1e1e                	slli	t3,t3,0x27
    80005d4e:	1e1e                	slli	t3,t3,0x27
    80005d50:	1e1e                	slli	t3,t3,0x27
    80005d52:	1e1e                	slli	t3,t3,0x27
    80005d54:	1e1e                	slli	t3,t3,0x27
    80005d56:	1e1e                	slli	t3,t3,0x27
    80005d58:	1e1e                	slli	t3,t3,0x27
    80005d5a:	1e1e                	slli	t3,t3,0x27
    80005d5c:	1e1e                	slli	t3,t3,0x27
    80005d5e:	1e1e                	slli	t3,t3,0x27
    80005d60:	1e1e                	slli	t3,t3,0x27
    80005d62:	1e1e                	slli	t3,t3,0x27
    80005d64:	1e1e                	slli	t3,t3,0x27
    80005d66:	1e1e                	slli	t3,t3,0x27
    80005d68:	1e1e                	slli	t3,t3,0x27
    80005d6a:	1e1e                	slli	t3,t3,0x27
    80005d6c:	1e1e                	slli	t3,t3,0x27
    80005d6e:	1e1e                	slli	t3,t3,0x27
    80005d70:	1e1e                	slli	t3,t3,0x27
    80005d72:	1e1e                	slli	t3,t3,0x27
    80005d74:	1e1e                	slli	t3,t3,0x27
    80005d76:	1e1e                	slli	t3,t3,0x27
    80005d78:	1e1e                	slli	t3,t3,0x27
    80005d7a:	1e1e                	slli	t3,t3,0x27
    80005d7c:	1e1e                	slli	t3,t3,0x27
    80005d7e:	1e1e                	slli	t3,t3,0x27
    80005d80:	1e1e                	slli	t3,t3,0x27
    80005d82:	1e1e                	slli	t3,t3,0x27
    80005d84:	1e1e                	slli	t3,t3,0x27
    80005d86:	1e1e                	slli	t3,t3,0x27
    80005d88:	1e1e                	slli	t3,t3,0x27
    80005d8a:	1e1e                	slli	t3,t3,0x27
    80005d8c:	1e1e                	slli	t3,t3,0x27
    80005d8e:	1e1e                	slli	t3,t3,0x27
    80005d90:	1e1e                	slli	t3,t3,0x27
    80005d92:	1e1e                	slli	t3,t3,0x27
    80005d94:	1e1e                	slli	t3,t3,0x27
    80005d96:	1e1e                	slli	t3,t3,0x27
    80005d98:	1e1e                	slli	t3,t3,0x27
    80005d9a:	1e1e                	slli	t3,t3,0x27
    80005d9c:	1e1e                	slli	t3,t3,0x27
    80005d9e:	1e1e                	slli	t3,t3,0x27
    80005da0:	1e1e                	slli	t3,t3,0x27
    80005da2:	1e1e                	slli	t3,t3,0x27
    80005da4:	1e1e                	slli	t3,t3,0x27
    80005da6:	1e1e                	slli	t3,t3,0x27
    80005da8:	1e1e                	slli	t3,t3,0x27
    80005daa:	1e1e                	slli	t3,t3,0x27
    80005dac:	1e1e                	slli	t3,t3,0x27
    80005dae:	1e1e                	slli	t3,t3,0x27
    80005db0:	1e1e                	slli	t3,t3,0x27
    80005db2:	1e1e                	slli	t3,t3,0x27
    80005db4:	1e1e                	slli	t3,t3,0x27
    80005db6:	1e1e                	slli	t3,t3,0x27
    80005db8:	1e1e                	slli	t3,t3,0x27
    80005dba:	1e1e                	slli	t3,t3,0x27
    80005dbc:	1e1e                	slli	t3,t3,0x27
    80005dbe:	1e1e                	slli	t3,t3,0x27
    80005dc0:	1e1e                	slli	t3,t3,0x27
    80005dc2:	1e1e                	slli	t3,t3,0x27
    80005dc4:	1e1e                	slli	t3,t3,0x27
    80005dc6:	1e1e                	slli	t3,t3,0x27
    80005dc8:	1e1e                	slli	t3,t3,0x27
    80005dca:	1e1e                	slli	t3,t3,0x27
    80005dcc:	1e1e                	slli	t3,t3,0x27
    80005dce:	1e1e                	slli	t3,t3,0x27
    80005dd0:	1e1e                	slli	t3,t3,0x27
    80005dd2:	1e1e                	slli	t3,t3,0x27
    80005dd4:	1e1e                	slli	t3,t3,0x27
    80005dd6:	1e1e                	slli	t3,t3,0x27
    80005dd8:	1e1e                	slli	t3,t3,0x27
    80005dda:	1e1e                	slli	t3,t3,0x27
    80005ddc:	1e1e                	slli	t3,t3,0x27
    80005dde:	1e1e                	slli	t3,t3,0x27
    80005de0:	1e1e                	slli	t3,t3,0x27
    80005de2:	1e1e                	slli	t3,t3,0x27
    80005de4:	1e1e                	slli	t3,t3,0x27
    80005de6:	1e1e                	slli	t3,t3,0x27
    80005de8:	1e1e                	slli	t3,t3,0x27
    80005dea:	1e1e                	slli	t3,t3,0x27
    80005dec:	1e1e                	slli	t3,t3,0x27
    80005dee:	1e1e                	slli	t3,t3,0x27
    80005df0:	1e1e                	slli	t3,t3,0x27
    80005df2:	1e1e                	slli	t3,t3,0x27
    80005df4:	1e1e                	slli	t3,t3,0x27
    80005df6:	1e1e                	slli	t3,t3,0x27
    80005df8:	1e1e                	slli	t3,t3,0x27
    80005dfa:	1e1e                	slli	t3,t3,0x27
    80005dfc:	1e1e                	slli	t3,t3,0x27
    80005dfe:	1e1e                	slli	t3,t3,0x27
    80005e00:	1e1e                	slli	t3,t3,0x27
    80005e02:	1e1e                	slli	t3,t3,0x27
    80005e04:	1e1e                	slli	t3,t3,0x27
    80005e06:	1e1e                	slli	t3,t3,0x27
    80005e08:	1e1e                	slli	t3,t3,0x27
    80005e0a:	1e1e                	slli	t3,t3,0x27
    80005e0c:	1e1e                	slli	t3,t3,0x27
    80005e0e:	1e1e                	slli	t3,t3,0x27
    80005e10:	1e1e                	slli	t3,t3,0x27
    80005e12:	1e1e                	slli	t3,t3,0x27
    80005e14:	1e1e                	slli	t3,t3,0x27
    80005e16:	1e1e                	slli	t3,t3,0x27
    80005e18:	1e1e                	slli	t3,t3,0x27
    80005e1a:	1e1e                	slli	t3,t3,0x27
    80005e1c:	1e1e                	slli	t3,t3,0x27
    80005e1e:	1e1e                	slli	t3,t3,0x27
    80005e20:	1e1e                	slli	t3,t3,0x27
    80005e22:	1e1e                	slli	t3,t3,0x27
    80005e24:	1e1e                	slli	t3,t3,0x27
    80005e26:	1e1e                	slli	t3,t3,0x27
    80005e28:	1e1e                	slli	t3,t3,0x27
    80005e2a:	1e1e                	slli	t3,t3,0x27
    80005e2c:	1e1e                	slli	t3,t3,0x27
    80005e2e:	1e1e                	slli	t3,t3,0x27
    80005e30:	1e1e                	slli	t3,t3,0x27
    80005e32:	1e1e                	slli	t3,t3,0x27
    80005e34:	1e1e                	slli	t3,t3,0x27
    80005e36:	1e1e                	slli	t3,t3,0x27
    80005e38:	1e1e                	slli	t3,t3,0x27
    80005e3a:	1e1e                	slli	t3,t3,0x27
    80005e3c:	1e1e                	slli	t3,t3,0x27
    80005e3e:	1e1e                	slli	t3,t3,0x27
    80005e40:	1e1e                	slli	t3,t3,0x27
    80005e42:	1e1e                	slli	t3,t3,0x27
    80005e44:	1e1e                	slli	t3,t3,0x27
    80005e46:	1e1e                	slli	t3,t3,0x27
    80005e48:	1e1e                	slli	t3,t3,0x27
    80005e4a:	1e1e                	slli	t3,t3,0x27
    80005e4c:	1e1e                	slli	t3,t3,0x27
    80005e4e:	1e1e                	slli	t3,t3,0x27
    80005e50:	1e1e                	slli	t3,t3,0x27
    80005e52:	1e1e                	slli	t3,t3,0x27
    80005e54:	1e1e                	slli	t3,t3,0x27
    80005e56:	1e1e                	slli	t3,t3,0x27
    80005e58:	1e1e                	slli	t3,t3,0x27
    80005e5a:	1e1e                	slli	t3,t3,0x27
    80005e5c:	1e1e                	slli	t3,t3,0x27
    80005e5e:	1e1e                	slli	t3,t3,0x27
    80005e60:	1e1e                	slli	t3,t3,0x27
    80005e62:	1e1e                	slli	t3,t3,0x27
    80005e64:	1e1e                	slli	t3,t3,0x27
    80005e66:	1e1e                	slli	t3,t3,0x27
    80005e68:	1e1e                	slli	t3,t3,0x27
    80005e6a:	1e1e                	slli	t3,t3,0x27
    80005e6c:	1e1e                	slli	t3,t3,0x27
    80005e6e:	1e1e                	slli	t3,t3,0x27
    80005e70:	1e1e                	slli	t3,t3,0x27
    80005e72:	1e1e                	slli	t3,t3,0x27
    80005e74:	1e1e                	slli	t3,t3,0x27
    80005e76:	1e1e                	slli	t3,t3,0x27
    80005e78:	1e1e                	slli	t3,t3,0x27
    80005e7a:	1e1e                	slli	t3,t3,0x27
    80005e7c:	1e1e                	slli	t3,t3,0x27
    80005e7e:	1e1e                	slli	t3,t3,0x27
    80005e80:	1e1e                	slli	t3,t3,0x27
    80005e82:	1e1e                	slli	t3,t3,0x27
    80005e84:	1e1e                	slli	t3,t3,0x27
    80005e86:	1e1e                	slli	t3,t3,0x27
    80005e88:	1e1e                	slli	t3,t3,0x27
    80005e8a:	1e1e                	slli	t3,t3,0x27
    80005e8c:	1e1e                	slli	t3,t3,0x27
    80005e8e:	1e1e                	slli	t3,t3,0x27
    80005e90:	1e1e                	slli	t3,t3,0x27
    80005e92:	1e1e                	slli	t3,t3,0x27
    80005e94:	1e1e                	slli	t3,t3,0x27
    80005e96:	1e1e                	slli	t3,t3,0x27
    80005e98:	1e1e                	slli	t3,t3,0x27
    80005e9a:	1e1e                	slli	t3,t3,0x27
    80005e9c:	1e1e                	slli	t3,t3,0x27
    80005e9e:	1e1e                	slli	t3,t3,0x27
    80005ea0:	1e1e                	slli	t3,t3,0x27
    80005ea2:	1e1e                	slli	t3,t3,0x27
    80005ea4:	1e1e                	slli	t3,t3,0x27
    80005ea6:	1e1e                	slli	t3,t3,0x27
    80005ea8:	1e1e                	slli	t3,t3,0x27
    80005eaa:	1e1e                	slli	t3,t3,0x27
    80005eac:	1e1e                	slli	t3,t3,0x27
    80005eae:	1e1e                	slli	t3,t3,0x27
    80005eb0:	1e1e                	slli	t3,t3,0x27
    80005eb2:	1e1e                	slli	t3,t3,0x27
    80005eb4:	1e1e                	slli	t3,t3,0x27
    80005eb6:	1e1e                	slli	t3,t3,0x27
    80005eb8:	1e1e                	slli	t3,t3,0x27
    80005eba:	1e1e                	slli	t3,t3,0x27
    80005ebc:	1e1e                	slli	t3,t3,0x27
    80005ebe:	1e1e                	slli	t3,t3,0x27
    80005ec0:	1e1e                	slli	t3,t3,0x27
    80005ec2:	1e1e                	slli	t3,t3,0x27
    80005ec4:	1e1e                	slli	t3,t3,0x27
    80005ec6:	1e1e                	slli	t3,t3,0x27
    80005ec8:	1e1e                	slli	t3,t3,0x27
    80005eca:	1e1e                	slli	t3,t3,0x27
    80005ecc:	1e1e                	slli	t3,t3,0x27
    80005ece:	1e1e                	slli	t3,t3,0x27
    80005ed0:	1e1e                	slli	t3,t3,0x27
    80005ed2:	1e1e                	slli	t3,t3,0x27
    80005ed4:	1e1e                	slli	t3,t3,0x27
    80005ed6:	1e1e                	slli	t3,t3,0x27
    80005ed8:	1e1e                	slli	t3,t3,0x27
    80005eda:	1e1e                	slli	t3,t3,0x27
    80005edc:	1e1e                	slli	t3,t3,0x27
    80005ede:	1e1e                	slli	t3,t3,0x27
    80005ee0:	1e1e                	slli	t3,t3,0x27
    80005ee2:	1e1e                	slli	t3,t3,0x27
    80005ee4:	1e1e                	slli	t3,t3,0x27
    80005ee6:	1e1e                	slli	t3,t3,0x27
    80005ee8:	1e1e                	slli	t3,t3,0x27
    80005eea:	1e1e                	slli	t3,t3,0x27
    80005eec:	1e1e                	slli	t3,t3,0x27
    80005eee:	1e1e                	slli	t3,t3,0x27
    80005ef0:	1e1e                	slli	t3,t3,0x27
    80005ef2:	1e1e                	slli	t3,t3,0x27
    80005ef4:	1e1e                	slli	t3,t3,0x27
    80005ef6:	1e1e                	slli	t3,t3,0x27
    80005ef8:	1e1e                	slli	t3,t3,0x27
    80005efa:	1e1e                	slli	t3,t3,0x27
    80005efc:	1e1e                	slli	t3,t3,0x27
    80005efe:	1e1e                	slli	t3,t3,0x27
    80005f00:	1e1e                	slli	t3,t3,0x27
    80005f02:	1e1e                	slli	t3,t3,0x27
    80005f04:	1e1e                	slli	t3,t3,0x27
    80005f06:	1e1e                	slli	t3,t3,0x27
    80005f08:	1e1e                	slli	t3,t3,0x27
    80005f0a:	1e1e                	slli	t3,t3,0x27
    80005f0c:	1e1e                	slli	t3,t3,0x27
    80005f0e:	1e1e                	slli	t3,t3,0x27
    80005f10:	1e1e                	slli	t3,t3,0x27
    80005f12:	1e1e                	slli	t3,t3,0x27
    80005f14:	1e1e                	slli	t3,t3,0x27
    80005f16:	1e1e                	slli	t3,t3,0x27
    80005f18:	1e1e                	slli	t3,t3,0x27
    80005f1a:	1e1e                	slli	t3,t3,0x27
    80005f1c:	1e1e                	slli	t3,t3,0x27
    80005f1e:	1e1e                	slli	t3,t3,0x27
    80005f20:	1e1e                	slli	t3,t3,0x27
    80005f22:	1e1e                	slli	t3,t3,0x27
    80005f24:	1e1e                	slli	t3,t3,0x27
    80005f26:	1e1e                	slli	t3,t3,0x27
    80005f28:	1e1e                	slli	t3,t3,0x27
    80005f2a:	1e1e                	slli	t3,t3,0x27
    80005f2c:	1e1e                	slli	t3,t3,0x27
    80005f2e:	1e1e                	slli	t3,t3,0x27
    80005f30:	1e1e                	slli	t3,t3,0x27
    80005f32:	1e1e                	slli	t3,t3,0x27
    80005f34:	1e1e                	slli	t3,t3,0x27
    80005f36:	1e1e                	slli	t3,t3,0x27
    80005f38:	1e1e                	slli	t3,t3,0x27
    80005f3a:	1e1e                	slli	t3,t3,0x27
    80005f3c:	1e1e                	slli	t3,t3,0x27
    80005f3e:	1e1e                	slli	t3,t3,0x27
    80005f40:	1e1e                	slli	t3,t3,0x27
    80005f42:	1e1e                	slli	t3,t3,0x27
    80005f44:	1e1e                	slli	t3,t3,0x27
    80005f46:	1e1e                	slli	t3,t3,0x27
    80005f48:	1e1e                	slli	t3,t3,0x27
    80005f4a:	1e1e                	slli	t3,t3,0x27
    80005f4c:	1e1e                	slli	t3,t3,0x27
    80005f4e:	1e1e                	slli	t3,t3,0x27
    80005f50:	1e1e                	slli	t3,t3,0x27
    80005f52:	1e1e                	slli	t3,t3,0x27
    80005f54:	1e1e                	slli	t3,t3,0x27
    80005f56:	1e1e                	slli	t3,t3,0x27
    80005f58:	1e1e                	slli	t3,t3,0x27
    80005f5a:	1e1e                	slli	t3,t3,0x27
    80005f5c:	1e1e                	slli	t3,t3,0x27
    80005f5e:	1e1e                	slli	t3,t3,0x27
    80005f60:	1e1e                	slli	t3,t3,0x27
    80005f62:	1e1e                	slli	t3,t3,0x27
    80005f64:	1e1e                	slli	t3,t3,0x27
    80005f66:	1e1e                	slli	t3,t3,0x27
    80005f68:	1e1e                	slli	t3,t3,0x27
    80005f6a:	1e1e                	slli	t3,t3,0x27
    80005f6c:	1e1e                	slli	t3,t3,0x27
    80005f6e:	1e1e                	slli	t3,t3,0x27
    80005f70:	1e1e                	slli	t3,t3,0x27
    80005f72:	1e1e                	slli	t3,t3,0x27
    80005f74:	1e1e                	slli	t3,t3,0x27
    80005f76:	1e1e                	slli	t3,t3,0x27
    80005f78:	1e1e                	slli	t3,t3,0x27
    80005f7a:	1e1e                	slli	t3,t3,0x27
    80005f7c:	1e1e                	slli	t3,t3,0x27
    80005f7e:	1e1e                	slli	t3,t3,0x27
    80005f80:	1e1e                	slli	t3,t3,0x27
    80005f82:	1e1e                	slli	t3,t3,0x27
    80005f84:	1e1e                	slli	t3,t3,0x27
    80005f86:	1e1e                	slli	t3,t3,0x27
    80005f88:	1e1e                	slli	t3,t3,0x27
    80005f8a:	1e1e                	slli	t3,t3,0x27
    80005f8c:	1e1e                	slli	t3,t3,0x27
    80005f8e:	1e1e                	slli	t3,t3,0x27
    80005f90:	1e1e                	slli	t3,t3,0x27
    80005f92:	1e1e                	slli	t3,t3,0x27
    80005f94:	1e1e                	slli	t3,t3,0x27
    80005f96:	1e1e                	slli	t3,t3,0x27
    80005f98:	1e1e                	slli	t3,t3,0x27
    80005f9a:	1e1e                	slli	t3,t3,0x27
    80005f9c:	1e1e                	slli	t3,t3,0x27
    80005f9e:	1e1e                	slli	t3,t3,0x27
    80005fa0:	1e1e                	slli	t3,t3,0x27
    80005fa2:	1e1e                	slli	t3,t3,0x27
    80005fa4:	1e1e                	slli	t3,t3,0x27
    80005fa6:	1e1e                	slli	t3,t3,0x27
    80005fa8:	1e1e                	slli	t3,t3,0x27
    80005faa:	1e1e                	slli	t3,t3,0x27
    80005fac:	1e1e                	slli	t3,t3,0x27
    80005fae:	1e1e                	slli	t3,t3,0x27
    80005fb0:	1e1e                	slli	t3,t3,0x27
    80005fb2:	1e1e                	slli	t3,t3,0x27
    80005fb4:	1e1e                	slli	t3,t3,0x27
    80005fb6:	1e1e                	slli	t3,t3,0x27
    80005fb8:	1e1e                	slli	t3,t3,0x27
    80005fba:	1e1e                	slli	t3,t3,0x27
    80005fbc:	1e1e                	slli	t3,t3,0x27
    80005fbe:	1e1e                	slli	t3,t3,0x27
    80005fc0:	1e1e                	slli	t3,t3,0x27
    80005fc2:	1e1e                	slli	t3,t3,0x27
    80005fc4:	1e1e                	slli	t3,t3,0x27
    80005fc6:	1e1e                	slli	t3,t3,0x27
    80005fc8:	1e1e                	slli	t3,t3,0x27
    80005fca:	1e1e                	slli	t3,t3,0x27
    80005fcc:	1e1e                	slli	t3,t3,0x27
    80005fce:	1e1e                	slli	t3,t3,0x27
    80005fd0:	1e1e                	slli	t3,t3,0x27
    80005fd2:	1e1e                	slli	t3,t3,0x27
    80005fd4:	1e1e                	slli	t3,t3,0x27
    80005fd6:	1e1e                	slli	t3,t3,0x27
    80005fd8:	1e1e                	slli	t3,t3,0x27
    80005fda:	1e1e                	slli	t3,t3,0x27
    80005fdc:	1e1e                	slli	t3,t3,0x27
    80005fde:	1e1e                	slli	t3,t3,0x27
    80005fe0:	1e1e                	slli	t3,t3,0x27
    80005fe2:	1e1e                	slli	t3,t3,0x27
    80005fe4:	1e1e                	slli	t3,t3,0x27
    80005fe6:	1e1e                	slli	t3,t3,0x27
    80005fe8:	1e1e                	slli	t3,t3,0x27
    80005fea:	1e1e                	slli	t3,t3,0x27
    80005fec:	1e1e                	slli	t3,t3,0x27
    80005fee:	1e1e                	slli	t3,t3,0x27
    80005ff0:	1e1e                	slli	t3,t3,0x27
    80005ff2:	1e1e                	slli	t3,t3,0x27
    80005ff4:	1e1e                	slli	t3,t3,0x27
    80005ff6:	1e1e                	slli	t3,t3,0x27
    80005ff8:	1e1e                	slli	t3,t3,0x27
    80005ffa:	1e1e                	slli	t3,t3,0x27
    80005ffc:	1e1e                	slli	t3,t3,0x27
    80005ffe:	1e1e                	slli	t3,t3,0x27
    80006000:	1e1e                	slli	t3,t3,0x27
    80006002:	1e1e                	slli	t3,t3,0x27
    80006004:	1e1e                	slli	t3,t3,0x27
    80006006:	1e1e                	slli	t3,t3,0x27
    80006008:	1e1e                	slli	t3,t3,0x27
    8000600a:	1e1e                	slli	t3,t3,0x27
    8000600c:	1e1e                	slli	t3,t3,0x27
    8000600e:	1e1e                	slli	t3,t3,0x27
    80006010:	1e1e                	slli	t3,t3,0x27
    80006012:	1e1e                	slli	t3,t3,0x27
    80006014:	1e1e                	slli	t3,t3,0x27
    80006016:	1e1e                	slli	t3,t3,0x27
    80006018:	1e1e                	slli	t3,t3,0x27
    8000601a:	1e1e                	slli	t3,t3,0x27
    8000601c:	1e1e                	slli	t3,t3,0x27
    8000601e:	1e1e                	slli	t3,t3,0x27
    80006020:	1e1e                	slli	t3,t3,0x27
    80006022:	1e1e                	slli	t3,t3,0x27
    80006024:	1e1e                	slli	t3,t3,0x27
    80006026:	1e1e                	slli	t3,t3,0x27
    80006028:	1e1e                	slli	t3,t3,0x27
    8000602a:	1e1e                	slli	t3,t3,0x27
    8000602c:	1e1e                	slli	t3,t3,0x27
    8000602e:	1e1e                	slli	t3,t3,0x27
    80006030:	1e1e                	slli	t3,t3,0x27
    80006032:	1e1e                	slli	t3,t3,0x27
    80006034:	1e1e                	slli	t3,t3,0x27
    80006036:	1e1e                	slli	t3,t3,0x27
    80006038:	1e1e                	slli	t3,t3,0x27
    8000603a:	1e1e                	slli	t3,t3,0x27
    8000603c:	1e1e                	slli	t3,t3,0x27
    8000603e:	1e1e                	slli	t3,t3,0x27
    80006040:	1e1e                	slli	t3,t3,0x27
    80006042:	1e1e                	slli	t3,t3,0x27
    80006044:	1e1e                	slli	t3,t3,0x27
    80006046:	1e1e                	slli	t3,t3,0x27
    80006048:	1e1e                	slli	t3,t3,0x27
    8000604a:	1e1e                	slli	t3,t3,0x27
    8000604c:	1e1e                	slli	t3,t3,0x27
    8000604e:	1e1e                	slli	t3,t3,0x27
    80006050:	1e1e                	slli	t3,t3,0x27
    80006052:	1e1e                	slli	t3,t3,0x27
    80006054:	1e1e                	slli	t3,t3,0x27
    80006056:	1e1e                	slli	t3,t3,0x27
    80006058:	1e1e                	slli	t3,t3,0x27
    8000605a:	1e1e                	slli	t3,t3,0x27
    8000605c:	1e1e                	slli	t3,t3,0x27
    8000605e:	1e1e                	slli	t3,t3,0x27
    80006060:	1e1e                	slli	t3,t3,0x27
    80006062:	1e1e                	slli	t3,t3,0x27
    80006064:	1e1e                	slli	t3,t3,0x27
    80006066:	1e1e                	slli	t3,t3,0x27
    80006068:	1e1e                	slli	t3,t3,0x27
    8000606a:	1e1e                	slli	t3,t3,0x27
    8000606c:	1e1e                	slli	t3,t3,0x27
    8000606e:	1e1e                	slli	t3,t3,0x27
    80006070:	1e1e                	slli	t3,t3,0x27
    80006072:	1e1e                	slli	t3,t3,0x27
    80006074:	1e1e                	slli	t3,t3,0x27
    80006076:	1e1e                	slli	t3,t3,0x27
    80006078:	1e1e                	slli	t3,t3,0x27
    8000607a:	1e1e                	slli	t3,t3,0x27
    8000607c:	1e1e                	slli	t3,t3,0x27
    8000607e:	1e1e                	slli	t3,t3,0x27
    80006080:	1e1e                	slli	t3,t3,0x27
    80006082:	1e1e                	slli	t3,t3,0x27
    80006084:	1e1e                	slli	t3,t3,0x27
    80006086:	1e1e                	slli	t3,t3,0x27
    80006088:	1e1e                	slli	t3,t3,0x27
    8000608a:	1e1e                	slli	t3,t3,0x27
    8000608c:	1e1e                	slli	t3,t3,0x27
    8000608e:	1e1e                	slli	t3,t3,0x27
    80006090:	1e1e                	slli	t3,t3,0x27
    80006092:	1e1e                	slli	t3,t3,0x27
    80006094:	1e1e                	slli	t3,t3,0x27
    80006096:	1e1e                	slli	t3,t3,0x27
    80006098:	1e1e                	slli	t3,t3,0x27
    8000609a:	1e1e                	slli	t3,t3,0x27
    8000609c:	1e1e                	slli	t3,t3,0x27
    8000609e:	1e1e                	slli	t3,t3,0x27
    800060a0:	1e1e                	slli	t3,t3,0x27
    800060a2:	1e1e                	slli	t3,t3,0x27
    800060a4:	1e1e                	slli	t3,t3,0x27
    800060a6:	1e1e                	slli	t3,t3,0x27
    800060a8:	1e1e                	slli	t3,t3,0x27
    800060aa:	1e1e                	slli	t3,t3,0x27
    800060ac:	1e1e                	slli	t3,t3,0x27
    800060ae:	1e1e                	slli	t3,t3,0x27
    800060b0:	1e1e                	slli	t3,t3,0x27
    800060b2:	1e1e                	slli	t3,t3,0x27
    800060b4:	1e1e                	slli	t3,t3,0x27
    800060b6:	1e1e                	slli	t3,t3,0x27
    800060b8:	1e1e                	slli	t3,t3,0x27
    800060ba:	1e1e                	slli	t3,t3,0x27
    800060bc:	1e1e                	slli	t3,t3,0x27
    800060be:	1e1e                	slli	t3,t3,0x27
    800060c0:	1e1e                	slli	t3,t3,0x27
    800060c2:	1e1e                	slli	t3,t3,0x27
    800060c4:	1e1e                	slli	t3,t3,0x27
    800060c6:	1e1e                	slli	t3,t3,0x27
    800060c8:	1e1e                	slli	t3,t3,0x27
    800060ca:	1e1e                	slli	t3,t3,0x27
    800060cc:	1e1e                	slli	t3,t3,0x27
    800060ce:	1e1e                	slli	t3,t3,0x27
    800060d0:	1e1e                	slli	t3,t3,0x27
    800060d2:	1e1e                	slli	t3,t3,0x27
    800060d4:	1e1e                	slli	t3,t3,0x27
    800060d6:	1e1e                	slli	t3,t3,0x27
    800060d8:	1e1e                	slli	t3,t3,0x27
    800060da:	1e1e                	slli	t3,t3,0x27
    800060dc:	1e1e                	slli	t3,t3,0x27
    800060de:	1e1e                	slli	t3,t3,0x27
    800060e0:	1e1e                	slli	t3,t3,0x27
    800060e2:	1e1e                	slli	t3,t3,0x27
    800060e4:	1e1e                	slli	t3,t3,0x27
    800060e6:	1e1e                	slli	t3,t3,0x27
    800060e8:	1e1e                	slli	t3,t3,0x27
    800060ea:	1e1e                	slli	t3,t3,0x27
    800060ec:	1e1e                	slli	t3,t3,0x27
    800060ee:	1e1e                	slli	t3,t3,0x27
    800060f0:	1e1e                	slli	t3,t3,0x27
    800060f2:	1e1e                	slli	t3,t3,0x27
    800060f4:	1e1e                	slli	t3,t3,0x27
    800060f6:	1e1e                	slli	t3,t3,0x27
    800060f8:	1e1e                	slli	t3,t3,0x27
    800060fa:	1e1e                	slli	t3,t3,0x27
    800060fc:	1e1e                	slli	t3,t3,0x27
    800060fe:	1e1e                	slli	t3,t3,0x27
    80006100:	1e1e                	slli	t3,t3,0x27
    80006102:	1e1e                	slli	t3,t3,0x27
    80006104:	1e1e                	slli	t3,t3,0x27
    80006106:	1e1e                	slli	t3,t3,0x27
    80006108:	1e1e                	slli	t3,t3,0x27
    8000610a:	1e1e                	slli	t3,t3,0x27
    8000610c:	1e1e                	slli	t3,t3,0x27
    8000610e:	1e1e                	slli	t3,t3,0x27
    80006110:	1e1e                	slli	t3,t3,0x27
    80006112:	1e1e                	slli	t3,t3,0x27
    80006114:	1e1e                	slli	t3,t3,0x27
    80006116:	1e1e                	slli	t3,t3,0x27
    80006118:	1e1e                	slli	t3,t3,0x27
    8000611a:	1e1e                	slli	t3,t3,0x27
    8000611c:	1e1e                	slli	t3,t3,0x27
    8000611e:	1e1e                	slli	t3,t3,0x27
    80006120:	1e1e                	slli	t3,t3,0x27
    80006122:	1e1e                	slli	t3,t3,0x27
    80006124:	1e1e                	slli	t3,t3,0x27
    80006126:	1e1e                	slli	t3,t3,0x27
    80006128:	1e1e                	slli	t3,t3,0x27
    8000612a:	1e1e                	slli	t3,t3,0x27
    8000612c:	1e1e                	slli	t3,t3,0x27
    8000612e:	1e1e                	slli	t3,t3,0x27
    80006130:	1e1e                	slli	t3,t3,0x27
    80006132:	1e1e                	slli	t3,t3,0x27
    80006134:	1e1e                	slli	t3,t3,0x27
    80006136:	1e1e                	slli	t3,t3,0x27
    80006138:	1e1e                	slli	t3,t3,0x27
    8000613a:	1e1e                	slli	t3,t3,0x27
    8000613c:	1e1e                	slli	t3,t3,0x27
    8000613e:	1e1e                	slli	t3,t3,0x27
    80006140:	1e1e                	slli	t3,t3,0x27
    80006142:	1e1e                	slli	t3,t3,0x27
    80006144:	1e1e                	slli	t3,t3,0x27
    80006146:	1e1e                	slli	t3,t3,0x27
    80006148:	1e1e                	slli	t3,t3,0x27
    8000614a:	1e1e                	slli	t3,t3,0x27
    8000614c:	1e1e                	slli	t3,t3,0x27
    8000614e:	1e1e                	slli	t3,t3,0x27
    80006150:	1e1e                	slli	t3,t3,0x27
    80006152:	1e1e                	slli	t3,t3,0x27
    80006154:	1e1e                	slli	t3,t3,0x27
    80006156:	1e1e                	slli	t3,t3,0x27
    80006158:	1e1e                	slli	t3,t3,0x27
    8000615a:	1e1e                	slli	t3,t3,0x27
    8000615c:	1e1e                	slli	t3,t3,0x27
    8000615e:	1e1e                	slli	t3,t3,0x27
    80006160:	1e1e                	slli	t3,t3,0x27
    80006162:	1e1e                	slli	t3,t3,0x27
    80006164:	1e1e                	slli	t3,t3,0x27
    80006166:	1e1e                	slli	t3,t3,0x27
    80006168:	1e1e                	slli	t3,t3,0x27
    8000616a:	1e1e                	slli	t3,t3,0x27
    8000616c:	1e1e                	slli	t3,t3,0x27
    8000616e:	1e1e                	slli	t3,t3,0x27
    80006170:	1e1e                	slli	t3,t3,0x27
    80006172:	1e1e                	slli	t3,t3,0x27
    80006174:	1e1e                	slli	t3,t3,0x27
    80006176:	1e1e                	slli	t3,t3,0x27
    80006178:	1e1e                	slli	t3,t3,0x27
    8000617a:	1e1e                	slli	t3,t3,0x27
    8000617c:	1e1e                	slli	t3,t3,0x27
    8000617e:	1e1e                	slli	t3,t3,0x27
    80006180:	1e1e                	slli	t3,t3,0x27
    80006182:	1e1e                	slli	t3,t3,0x27
    80006184:	1e1e                	slli	t3,t3,0x27
    80006186:	1e1e                	slli	t3,t3,0x27
    80006188:	1e1e                	slli	t3,t3,0x27
    8000618a:	1e1e                	slli	t3,t3,0x27
    8000618c:	1e1e                	slli	t3,t3,0x27
    8000618e:	1e1e                	slli	t3,t3,0x27
    80006190:	1e1e                	slli	t3,t3,0x27
    80006192:	1e1e                	slli	t3,t3,0x27
    80006194:	1e1e                	slli	t3,t3,0x27
    80006196:	1e1e                	slli	t3,t3,0x27
    80006198:	1e1e                	slli	t3,t3,0x27
    8000619a:	1e1e                	slli	t3,t3,0x27
    8000619c:	1e1e                	slli	t3,t3,0x27
    8000619e:	1e1e                	slli	t3,t3,0x27
    800061a0:	1e1e                	slli	t3,t3,0x27
    800061a2:	1e1e                	slli	t3,t3,0x27
    800061a4:	1e1e                	slli	t3,t3,0x27
    800061a6:	1e1e                	slli	t3,t3,0x27
    800061a8:	1e1e                	slli	t3,t3,0x27
    800061aa:	1e1e                	slli	t3,t3,0x27
    800061ac:	1e1e                	slli	t3,t3,0x27
    800061ae:	1e1e                	slli	t3,t3,0x27
    800061b0:	1e1e                	slli	t3,t3,0x27
    800061b2:	1e1e                	slli	t3,t3,0x27
    800061b4:	1e1e                	slli	t3,t3,0x27
    800061b6:	1e1e                	slli	t3,t3,0x27
    800061b8:	1e1e                	slli	t3,t3,0x27
    800061ba:	1e1e                	slli	t3,t3,0x27
    800061bc:	1e1e                	slli	t3,t3,0x27
    800061be:	1e1e                	slli	t3,t3,0x27
    800061c0:	1e1e                	slli	t3,t3,0x27
    800061c2:	1e1e                	slli	t3,t3,0x27
    800061c4:	1e1e                	slli	t3,t3,0x27
    800061c6:	1e1e                	slli	t3,t3,0x27
    800061c8:	1e1e                	slli	t3,t3,0x27
    800061ca:	1e1e                	slli	t3,t3,0x27
    800061cc:	1e1e                	slli	t3,t3,0x27
    800061ce:	1e1e                	slli	t3,t3,0x27
    800061d0:	1e1e                	slli	t3,t3,0x27
    800061d2:	1e1e                	slli	t3,t3,0x27
    800061d4:	1e1e                	slli	t3,t3,0x27
    800061d6:	1e1e                	slli	t3,t3,0x27
    800061d8:	1e1e                	slli	t3,t3,0x27
    800061da:	1e1e                	slli	t3,t3,0x27
    800061dc:	1e1e                	slli	t3,t3,0x27
    800061de:	1e1e                	slli	t3,t3,0x27
    800061e0:	1e1e                	slli	t3,t3,0x27
    800061e2:	1e1e                	slli	t3,t3,0x27
    800061e4:	1e1e                	slli	t3,t3,0x27
    800061e6:	1e1e                	slli	t3,t3,0x27
    800061e8:	1e1e                	slli	t3,t3,0x27
    800061ea:	1e1e                	slli	t3,t3,0x27
    800061ec:	1e1e                	slli	t3,t3,0x27
    800061ee:	1e1e                	slli	t3,t3,0x27
    800061f0:	1e1e                	slli	t3,t3,0x27
    800061f2:	1e1e                	slli	t3,t3,0x27
    800061f4:	1e1e                	slli	t3,t3,0x27
    800061f6:	1e1e                	slli	t3,t3,0x27
    800061f8:	1e1e                	slli	t3,t3,0x27
    800061fa:	1e1e                	slli	t3,t3,0x27
    800061fc:	1e1e                	slli	t3,t3,0x27
    800061fe:	1e1e                	slli	t3,t3,0x27
    80006200:	1e1e                	slli	t3,t3,0x27
    80006202:	1e1e                	slli	t3,t3,0x27
    80006204:	1e1e                	slli	t3,t3,0x27
    80006206:	1e1e                	slli	t3,t3,0x27
    80006208:	1e1e                	slli	t3,t3,0x27
    8000620a:	1e1e                	slli	t3,t3,0x27
    8000620c:	1e1e                	slli	t3,t3,0x27
    8000620e:	1e1e                	slli	t3,t3,0x27
    80006210:	1e1e                	slli	t3,t3,0x27
    80006212:	1e1e                	slli	t3,t3,0x27
    80006214:	1e1e                	slli	t3,t3,0x27
    80006216:	1e1e                	slli	t3,t3,0x27
    80006218:	1e1e                	slli	t3,t3,0x27
    8000621a:	1e1e                	slli	t3,t3,0x27
    8000621c:	1e1e                	slli	t3,t3,0x27
    8000621e:	1e1e                	slli	t3,t3,0x27
    80006220:	1e1e                	slli	t3,t3,0x27
    80006222:	1e1e                	slli	t3,t3,0x27
    80006224:	1e1e                	slli	t3,t3,0x27
    80006226:	1e1e                	slli	t3,t3,0x27
    80006228:	1e1e                	slli	t3,t3,0x27
    8000622a:	1e1e                	slli	t3,t3,0x27
    8000622c:	1e1e                	slli	t3,t3,0x27
    8000622e:	1e1e                	slli	t3,t3,0x27
    80006230:	1e1e                	slli	t3,t3,0x27
    80006232:	1e1e                	slli	t3,t3,0x27
    80006234:	1e1e                	slli	t3,t3,0x27
    80006236:	1e1e                	slli	t3,t3,0x27
    80006238:	1e1e                	slli	t3,t3,0x27
    8000623a:	1e1e                	slli	t3,t3,0x27
    8000623c:	1e1e                	slli	t3,t3,0x27
    8000623e:	1e1e                	slli	t3,t3,0x27
    80006240:	1e1e                	slli	t3,t3,0x27
    80006242:	1e1e                	slli	t3,t3,0x27
    80006244:	1e1e                	slli	t3,t3,0x27
    80006246:	1e1e                	slli	t3,t3,0x27
    80006248:	1e1e                	slli	t3,t3,0x27
    8000624a:	1e1e                	slli	t3,t3,0x27
    8000624c:	1e1e                	slli	t3,t3,0x27
    8000624e:	1e1e                	slli	t3,t3,0x27
    80006250:	1e1e                	slli	t3,t3,0x27
    80006252:	1e1e                	slli	t3,t3,0x27
    80006254:	1e1e                	slli	t3,t3,0x27
    80006256:	1e1e                	slli	t3,t3,0x27
    80006258:	1e1e                	slli	t3,t3,0x27
    8000625a:	1e1e                	slli	t3,t3,0x27
    8000625c:	1e1e                	slli	t3,t3,0x27
    8000625e:	1e1e                	slli	t3,t3,0x27
    80006260:	1e1e                	slli	t3,t3,0x27
    80006262:	1e1e                	slli	t3,t3,0x27
    80006264:	1e1e                	slli	t3,t3,0x27
    80006266:	1e1e                	slli	t3,t3,0x27
    80006268:	1e1e                	slli	t3,t3,0x27
    8000626a:	1e1e                	slli	t3,t3,0x27
    8000626c:	1e1e                	slli	t3,t3,0x27
    8000626e:	1e1e                	slli	t3,t3,0x27
    80006270:	1e1e                	slli	t3,t3,0x27
    80006272:	1e1e                	slli	t3,t3,0x27
    80006274:	1e1e                	slli	t3,t3,0x27
    80006276:	1e1e                	slli	t3,t3,0x27
    80006278:	1e1e                	slli	t3,t3,0x27
    8000627a:	1e1e                	slli	t3,t3,0x27
    8000627c:	1e1e                	slli	t3,t3,0x27
    8000627e:	1e1e                	slli	t3,t3,0x27
    80006280:	1e1e                	slli	t3,t3,0x27
    80006282:	1e1e                	slli	t3,t3,0x27
    80006284:	1e1e                	slli	t3,t3,0x27
    80006286:	1e1e                	slli	t3,t3,0x27
    80006288:	1e1e                	slli	t3,t3,0x27
    8000628a:	1e1e                	slli	t3,t3,0x27
    8000628c:	1e1e                	slli	t3,t3,0x27
    8000628e:	1e1e                	slli	t3,t3,0x27
    80006290:	1e1e                	slli	t3,t3,0x27
    80006292:	1e1e                	slli	t3,t3,0x27
    80006294:	1e1e                	slli	t3,t3,0x27
    80006296:	1e1e                	slli	t3,t3,0x27
    80006298:	1e1e                	slli	t3,t3,0x27
    8000629a:	1e1e                	slli	t3,t3,0x27
    8000629c:	1e1e                	slli	t3,t3,0x27
    8000629e:	1e1e                	slli	t3,t3,0x27
    800062a0:	1e1e                	slli	t3,t3,0x27
    800062a2:	1e1e                	slli	t3,t3,0x27
    800062a4:	1e1e                	slli	t3,t3,0x27
    800062a6:	1e1e                	slli	t3,t3,0x27
    800062a8:	1e1e                	slli	t3,t3,0x27
    800062aa:	1e1e                	slli	t3,t3,0x27
    800062ac:	1e1e                	slli	t3,t3,0x27
    800062ae:	1e1e                	slli	t3,t3,0x27
    800062b0:	1e1e                	slli	t3,t3,0x27
    800062b2:	1e1e                	slli	t3,t3,0x27
    800062b4:	1e1e                	slli	t3,t3,0x27
    800062b6:	1e1e                	slli	t3,t3,0x27
    800062b8:	1e1e                	slli	t3,t3,0x27
    800062ba:	1e1e                	slli	t3,t3,0x27
    800062bc:	1e1e                	slli	t3,t3,0x27
    800062be:	1e1e                	slli	t3,t3,0x27
    800062c0:	1e1e                	slli	t3,t3,0x27
    800062c2:	1e1e                	slli	t3,t3,0x27
    800062c4:	1e1e                	slli	t3,t3,0x27
    800062c6:	1e1e                	slli	t3,t3,0x27
    800062c8:	1e1e                	slli	t3,t3,0x27
    800062ca:	1e1e                	slli	t3,t3,0x27
    800062cc:	1e1e                	slli	t3,t3,0x27
    800062ce:	1e1e                	slli	t3,t3,0x27
    800062d0:	1e1e                	slli	t3,t3,0x27
    800062d2:	1e1e                	slli	t3,t3,0x27
    800062d4:	1e1e                	slli	t3,t3,0x27
    800062d6:	1e1e                	slli	t3,t3,0x27
    800062d8:	1e1e                	slli	t3,t3,0x27
    800062da:	1e1e                	slli	t3,t3,0x27
    800062dc:	1e1e                	slli	t3,t3,0x27
    800062de:	1e1e                	slli	t3,t3,0x27
    800062e0:	1e1e                	slli	t3,t3,0x27
    800062e2:	1e1e                	slli	t3,t3,0x27
    800062e4:	1e1e                	slli	t3,t3,0x27
    800062e6:	1e1e                	slli	t3,t3,0x27
    800062e8:	1e1e                	slli	t3,t3,0x27
    800062ea:	1e1e                	slli	t3,t3,0x27
    800062ec:	1e1e                	slli	t3,t3,0x27
    800062ee:	1e1e                	slli	t3,t3,0x27
    800062f0:	1e1e                	slli	t3,t3,0x27
    800062f2:	1e1e                	slli	t3,t3,0x27
    800062f4:	1e1e                	slli	t3,t3,0x27
    800062f6:	1e1e                	slli	t3,t3,0x27
    800062f8:	1e1e                	slli	t3,t3,0x27
    800062fa:	1e1e                	slli	t3,t3,0x27
    800062fc:	1e1e                	slli	t3,t3,0x27
    800062fe:	1e1e                	slli	t3,t3,0x27
    80006300:	1e1e                	slli	t3,t3,0x27
    80006302:	1e1e                	slli	t3,t3,0x27
    80006304:	1e1e                	slli	t3,t3,0x27
    80006306:	1e1e                	slli	t3,t3,0x27
    80006308:	1e1e                	slli	t3,t3,0x27
    8000630a:	1e1e                	slli	t3,t3,0x27
    8000630c:	1e1e                	slli	t3,t3,0x27
    8000630e:	1e1e                	slli	t3,t3,0x27
    80006310:	1e1e                	slli	t3,t3,0x27
    80006312:	1e1e                	slli	t3,t3,0x27
    80006314:	1e1e                	slli	t3,t3,0x27
    80006316:	1e1e                	slli	t3,t3,0x27
    80006318:	1e1e                	slli	t3,t3,0x27
    8000631a:	1e1e                	slli	t3,t3,0x27
    8000631c:	1e1e                	slli	t3,t3,0x27
    8000631e:	1e1e                	slli	t3,t3,0x27
    80006320:	1e1e                	slli	t3,t3,0x27
    80006322:	1e1e                	slli	t3,t3,0x27
    80006324:	1e1e                	slli	t3,t3,0x27
    80006326:	1e1e                	slli	t3,t3,0x27
    80006328:	1e1e                	slli	t3,t3,0x27
    8000632a:	1e1e                	slli	t3,t3,0x27
    8000632c:	1e1e                	slli	t3,t3,0x27
    8000632e:	1e1e                	slli	t3,t3,0x27
    80006330:	1e1e                	slli	t3,t3,0x27
    80006332:	1e1e                	slli	t3,t3,0x27
    80006334:	1e1e                	slli	t3,t3,0x27
    80006336:	1e1e                	slli	t3,t3,0x27
    80006338:	1e1e                	slli	t3,t3,0x27
    8000633a:	1e1e                	slli	t3,t3,0x27
    8000633c:	1e1e                	slli	t3,t3,0x27
    8000633e:	1e1e                	slli	t3,t3,0x27
    80006340:	1e1e                	slli	t3,t3,0x27
    80006342:	1e1e                	slli	t3,t3,0x27
    80006344:	1e1e                	slli	t3,t3,0x27
    80006346:	1e1e                	slli	t3,t3,0x27
    80006348:	1e1e                	slli	t3,t3,0x27
    8000634a:	1e1e                	slli	t3,t3,0x27
    8000634c:	1e1e                	slli	t3,t3,0x27
    8000634e:	1e1e                	slli	t3,t3,0x27
    80006350:	1e1e                	slli	t3,t3,0x27
    80006352:	1e1e                	slli	t3,t3,0x27
    80006354:	1e1e                	slli	t3,t3,0x27
    80006356:	1e1e                	slli	t3,t3,0x27
    80006358:	1e1e                	slli	t3,t3,0x27
    8000635a:	1e1e                	slli	t3,t3,0x27
    8000635c:	1e1e                	slli	t3,t3,0x27
    8000635e:	1e1e                	slli	t3,t3,0x27
    80006360:	1e1e                	slli	t3,t3,0x27
    80006362:	1e1e                	slli	t3,t3,0x27
    80006364:	1e1e                	slli	t3,t3,0x27
    80006366:	1e1e                	slli	t3,t3,0x27
    80006368:	1e1e                	slli	t3,t3,0x27
    8000636a:	1e1e                	slli	t3,t3,0x27
    8000636c:	1e1e                	slli	t3,t3,0x27
    8000636e:	1e1e                	slli	t3,t3,0x27
    80006370:	1e1e                	slli	t3,t3,0x27
    80006372:	1e1e                	slli	t3,t3,0x27
    80006374:	1e1e                	slli	t3,t3,0x27
    80006376:	1e1e                	slli	t3,t3,0x27
    80006378:	1e1e                	slli	t3,t3,0x27
    8000637a:	1e1e                	slli	t3,t3,0x27
    8000637c:	1e1e                	slli	t3,t3,0x27
    8000637e:	1e1e                	slli	t3,t3,0x27
    80006380:	1e1e                	slli	t3,t3,0x27
    80006382:	1e1e                	slli	t3,t3,0x27
    80006384:	1e1e                	slli	t3,t3,0x27
    80006386:	1e1e                	slli	t3,t3,0x27
    80006388:	1e1e                	slli	t3,t3,0x27
    8000638a:	1e1e                	slli	t3,t3,0x27
    8000638c:	1e1e                	slli	t3,t3,0x27
    8000638e:	1e1e                	slli	t3,t3,0x27
    80006390:	1e1e                	slli	t3,t3,0x27
    80006392:	1e1e                	slli	t3,t3,0x27
    80006394:	1e1e                	slli	t3,t3,0x27
    80006396:	1e1e                	slli	t3,t3,0x27
    80006398:	1e1e                	slli	t3,t3,0x27
    8000639a:	1e1e                	slli	t3,t3,0x27
    8000639c:	1e1e                	slli	t3,t3,0x27
    8000639e:	1e1e                	slli	t3,t3,0x27
    800063a0:	1e1e                	slli	t3,t3,0x27
    800063a2:	1e1e                	slli	t3,t3,0x27
    800063a4:	1e1e                	slli	t3,t3,0x27
    800063a6:	1e1e                	slli	t3,t3,0x27
    800063a8:	1e1e                	slli	t3,t3,0x27
    800063aa:	1e1e                	slli	t3,t3,0x27
    800063ac:	1e1e                	slli	t3,t3,0x27
    800063ae:	1e1e                	slli	t3,t3,0x27
    800063b0:	1e1e                	slli	t3,t3,0x27
    800063b2:	1e1e                	slli	t3,t3,0x27
    800063b4:	1e1e                	slli	t3,t3,0x27
    800063b6:	1e1e                	slli	t3,t3,0x27
    800063b8:	1e1e                	slli	t3,t3,0x27
    800063ba:	1e1e                	slli	t3,t3,0x27
    800063bc:	1e1e                	slli	t3,t3,0x27
    800063be:	1e1e                	slli	t3,t3,0x27
    800063c0:	1e1e                	slli	t3,t3,0x27
    800063c2:	1e1e                	slli	t3,t3,0x27
    800063c4:	1e1e                	slli	t3,t3,0x27
    800063c6:	1e1e                	slli	t3,t3,0x27
    800063c8:	1e1e                	slli	t3,t3,0x27
    800063ca:	1e1e                	slli	t3,t3,0x27
    800063cc:	1e1e                	slli	t3,t3,0x27
    800063ce:	1e1e                	slli	t3,t3,0x27
    800063d0:	1e1e                	slli	t3,t3,0x27
    800063d2:	1e1e                	slli	t3,t3,0x27
    800063d4:	1e1e                	slli	t3,t3,0x27
    800063d6:	1e1e                	slli	t3,t3,0x27
    800063d8:	1e1e                	slli	t3,t3,0x27
    800063da:	1e1e                	slli	t3,t3,0x27
    800063dc:	1e1e                	slli	t3,t3,0x27
    800063de:	1e1e                	slli	t3,t3,0x27
    800063e0:	1e1e                	slli	t3,t3,0x27
    800063e2:	1e1e                	slli	t3,t3,0x27
    800063e4:	1e1e                	slli	t3,t3,0x27
    800063e6:	1e1e                	slli	t3,t3,0x27
    800063e8:	1e1e                	slli	t3,t3,0x27
    800063ea:	1e1e                	slli	t3,t3,0x27
    800063ec:	1e1e                	slli	t3,t3,0x27
    800063ee:	1e1e                	slli	t3,t3,0x27
    800063f0:	1e1e                	slli	t3,t3,0x27
    800063f2:	1e1e                	slli	t3,t3,0x27
    800063f4:	1e1e                	slli	t3,t3,0x27
    800063f6:	1e1e                	slli	t3,t3,0x27
    800063f8:	1e1e                	slli	t3,t3,0x27
    800063fa:	1e1e                	slli	t3,t3,0x27
    800063fc:	1e1e                	slli	t3,t3,0x27
    800063fe:	1e1e                	slli	t3,t3,0x27
    80006400:	1e1e                	slli	t3,t3,0x27
    80006402:	1e1e                	slli	t3,t3,0x27
    80006404:	1e1e                	slli	t3,t3,0x27
    80006406:	1e1e                	slli	t3,t3,0x27
    80006408:	1e1e                	slli	t3,t3,0x27
    8000640a:	1e1e                	slli	t3,t3,0x27
    8000640c:	1e1e                	slli	t3,t3,0x27
    8000640e:	1e1e                	slli	t3,t3,0x27
    80006410:	1e1e                	slli	t3,t3,0x27
    80006412:	1e1e                	slli	t3,t3,0x27
    80006414:	1e1e                	slli	t3,t3,0x27
    80006416:	1e1e                	slli	t3,t3,0x27
    80006418:	1e1e                	slli	t3,t3,0x27
    8000641a:	1e1e                	slli	t3,t3,0x27
    8000641c:	1e1e                	slli	t3,t3,0x27
    8000641e:	1e1e                	slli	t3,t3,0x27
    80006420:	1e1e                	slli	t3,t3,0x27
    80006422:	1e1e                	slli	t3,t3,0x27
    80006424:	1e1e                	slli	t3,t3,0x27
    80006426:	1e1e                	slli	t3,t3,0x27
    80006428:	1e1e                	slli	t3,t3,0x27
    8000642a:	1e1e                	slli	t3,t3,0x27
    8000642c:	1e1e                	slli	t3,t3,0x27
    8000642e:	1e1e                	slli	t3,t3,0x27
    80006430:	1e1e                	slli	t3,t3,0x27
    80006432:	1e1e                	slli	t3,t3,0x27
    80006434:	1e1e                	slli	t3,t3,0x27
    80006436:	1e1e                	slli	t3,t3,0x27
    80006438:	1e1e                	slli	t3,t3,0x27
    8000643a:	1e1e                	slli	t3,t3,0x27
    8000643c:	1e1e                	slli	t3,t3,0x27
    8000643e:	1e1e                	slli	t3,t3,0x27
    80006440:	1e1e                	slli	t3,t3,0x27
    80006442:	1e1e                	slli	t3,t3,0x27
    80006444:	1e1e                	slli	t3,t3,0x27
    80006446:	1e1e                	slli	t3,t3,0x27
    80006448:	1e1e                	slli	t3,t3,0x27
    8000644a:	1e1e                	slli	t3,t3,0x27
    8000644c:	1e1e                	slli	t3,t3,0x27
    8000644e:	1e1e                	slli	t3,t3,0x27
    80006450:	1e1e                	slli	t3,t3,0x27
    80006452:	1e1e                	slli	t3,t3,0x27
    80006454:	1e1e                	slli	t3,t3,0x27
    80006456:	1e1e                	slli	t3,t3,0x27
    80006458:	1e1e                	slli	t3,t3,0x27
    8000645a:	1e1e                	slli	t3,t3,0x27
    8000645c:	1e1e                	slli	t3,t3,0x27
    8000645e:	1e1e                	slli	t3,t3,0x27
    80006460:	1e1e                	slli	t3,t3,0x27
    80006462:	1e1e                	slli	t3,t3,0x27
    80006464:	1e1e                	slli	t3,t3,0x27
    80006466:	1e1e                	slli	t3,t3,0x27
    80006468:	1e1e                	slli	t3,t3,0x27
    8000646a:	1e1e                	slli	t3,t3,0x27
    8000646c:	1e1e                	slli	t3,t3,0x27
    8000646e:	1e1e                	slli	t3,t3,0x27
    80006470:	1e1e                	slli	t3,t3,0x27
    80006472:	1e1e                	slli	t3,t3,0x27
    80006474:	1e1e                	slli	t3,t3,0x27
    80006476:	1e1e                	slli	t3,t3,0x27
    80006478:	1e1e                	slli	t3,t3,0x27
    8000647a:	1e1e                	slli	t3,t3,0x27
    8000647c:	1e1e                	slli	t3,t3,0x27
    8000647e:	1e1e                	slli	t3,t3,0x27
    80006480:	1e1e                	slli	t3,t3,0x27
    80006482:	1e1e                	slli	t3,t3,0x27
    80006484:	1e1e                	slli	t3,t3,0x27
    80006486:	1e1e                	slli	t3,t3,0x27
    80006488:	1e1e                	slli	t3,t3,0x27
    8000648a:	1e1e                	slli	t3,t3,0x27
    8000648c:	1e1e                	slli	t3,t3,0x27
    8000648e:	1e1e                	slli	t3,t3,0x27
    80006490:	1e1e                	slli	t3,t3,0x27
    80006492:	1e1e                	slli	t3,t3,0x27
    80006494:	1e1e                	slli	t3,t3,0x27
    80006496:	1e1e                	slli	t3,t3,0x27
    80006498:	1e1e                	slli	t3,t3,0x27
    8000649a:	1e1e                	slli	t3,t3,0x27
    8000649c:	1e1e                	slli	t3,t3,0x27
    8000649e:	1e1e                	slli	t3,t3,0x27
    800064a0:	1e1e                	slli	t3,t3,0x27
    800064a2:	1e1e                	slli	t3,t3,0x27
    800064a4:	1e1e                	slli	t3,t3,0x27
    800064a6:	1e1e                	slli	t3,t3,0x27
    800064a8:	1e1e                	slli	t3,t3,0x27
    800064aa:	1e1e                	slli	t3,t3,0x27
    800064ac:	1e1e                	slli	t3,t3,0x27
    800064ae:	1e1e                	slli	t3,t3,0x27
    800064b0:	1e1e                	slli	t3,t3,0x27
    800064b2:	1e1e                	slli	t3,t3,0x27
    800064b4:	1e1e                	slli	t3,t3,0x27
    800064b6:	1e1e                	slli	t3,t3,0x27
    800064b8:	1e1e                	slli	t3,t3,0x27
    800064ba:	1e1e                	slli	t3,t3,0x27
    800064bc:	1e1e                	slli	t3,t3,0x27
    800064be:	1e1e                	slli	t3,t3,0x27
    800064c0:	1e1e                	slli	t3,t3,0x27
    800064c2:	1e1e                	slli	t3,t3,0x27
    800064c4:	1e1e                	slli	t3,t3,0x27
    800064c6:	1e1e                	slli	t3,t3,0x27
    800064c8:	1e1e                	slli	t3,t3,0x27
    800064ca:	1e1e                	slli	t3,t3,0x27
    800064cc:	1e1e                	slli	t3,t3,0x27
    800064ce:	1e1e                	slli	t3,t3,0x27
    800064d0:	1e1e                	slli	t3,t3,0x27
    800064d2:	1e1e                	slli	t3,t3,0x27
    800064d4:	1e1e                	slli	t3,t3,0x27
    800064d6:	1e1e                	slli	t3,t3,0x27
    800064d8:	1e1e                	slli	t3,t3,0x27
    800064da:	1e1e                	slli	t3,t3,0x27
    800064dc:	1e1e                	slli	t3,t3,0x27
    800064de:	1e1e                	slli	t3,t3,0x27
    800064e0:	1e1e                	slli	t3,t3,0x27
    800064e2:	1e1e                	slli	t3,t3,0x27
    800064e4:	1e1e                	slli	t3,t3,0x27
    800064e6:	1e1e                	slli	t3,t3,0x27
    800064e8:	1e1e                	slli	t3,t3,0x27
    800064ea:	1e1e                	slli	t3,t3,0x27
    800064ec:	1e1e                	slli	t3,t3,0x27
    800064ee:	1e1e                	slli	t3,t3,0x27
    800064f0:	1e1e                	slli	t3,t3,0x27
    800064f2:	1e1e                	slli	t3,t3,0x27
    800064f4:	1e1e                	slli	t3,t3,0x27
    800064f6:	1e1e                	slli	t3,t3,0x27
    800064f8:	1e1e                	slli	t3,t3,0x27
    800064fa:	1e1e                	slli	t3,t3,0x27
    800064fc:	1e1e                	slli	t3,t3,0x27
    800064fe:	1e1e                	slli	t3,t3,0x27
    80006500:	1e1e                	slli	t3,t3,0x27
    80006502:	1e1e                	slli	t3,t3,0x27
    80006504:	1e1e                	slli	t3,t3,0x27
    80006506:	1e1e                	slli	t3,t3,0x27
    80006508:	1e1e                	slli	t3,t3,0x27
    8000650a:	1e1e                	slli	t3,t3,0x27
    8000650c:	1e1e                	slli	t3,t3,0x27
    8000650e:	1e1e                	slli	t3,t3,0x27
    80006510:	1e1e                	slli	t3,t3,0x27
    80006512:	1e1e                	slli	t3,t3,0x27
    80006514:	1e1e                	slli	t3,t3,0x27
    80006516:	1e1e                	slli	t3,t3,0x27
    80006518:	1e1e                	slli	t3,t3,0x27
    8000651a:	1e1e                	slli	t3,t3,0x27
    8000651c:	1e1e                	slli	t3,t3,0x27
    8000651e:	1e1e                	slli	t3,t3,0x27
    80006520:	1e1e                	slli	t3,t3,0x27
    80006522:	1e1e                	slli	t3,t3,0x27
    80006524:	1e1e                	slli	t3,t3,0x27
    80006526:	1e1e                	slli	t3,t3,0x27
    80006528:	1e1e                	slli	t3,t3,0x27
    8000652a:	1e1e                	slli	t3,t3,0x27
    8000652c:	1e1e                	slli	t3,t3,0x27
    8000652e:	1e1e                	slli	t3,t3,0x27
    80006530:	1e1e                	slli	t3,t3,0x27
    80006532:	1e1e                	slli	t3,t3,0x27
    80006534:	1e1e                	slli	t3,t3,0x27
    80006536:	1e1e                	slli	t3,t3,0x27
    80006538:	1e1e                	slli	t3,t3,0x27
    8000653a:	1e1e                	slli	t3,t3,0x27
    8000653c:	1e1e                	slli	t3,t3,0x27
    8000653e:	1e1e                	slli	t3,t3,0x27
    80006540:	1e1e                	slli	t3,t3,0x27
    80006542:	1e1e                	slli	t3,t3,0x27
    80006544:	1e1e                	slli	t3,t3,0x27
    80006546:	1e1e                	slli	t3,t3,0x27
    80006548:	1e1e                	slli	t3,t3,0x27
    8000654a:	1e1e                	slli	t3,t3,0x27
    8000654c:	1e1e                	slli	t3,t3,0x27
    8000654e:	1e1e                	slli	t3,t3,0x27
    80006550:	1e1e                	slli	t3,t3,0x27
    80006552:	1e1e                	slli	t3,t3,0x27
    80006554:	1e1e                	slli	t3,t3,0x27
    80006556:	1e1e                	slli	t3,t3,0x27
    80006558:	1e1e                	slli	t3,t3,0x27
    8000655a:	1e1e                	slli	t3,t3,0x27
    8000655c:	1e1e                	slli	t3,t3,0x27
    8000655e:	1e1e                	slli	t3,t3,0x27
    80006560:	1e1e                	slli	t3,t3,0x27
    80006562:	1e1e                	slli	t3,t3,0x27
    80006564:	1e1e                	slli	t3,t3,0x27
    80006566:	1e1e                	slli	t3,t3,0x27
    80006568:	1e1e                	slli	t3,t3,0x27
    8000656a:	1e1e                	slli	t3,t3,0x27
    8000656c:	1e1e                	slli	t3,t3,0x27
    8000656e:	1e1e                	slli	t3,t3,0x27
    80006570:	1e1e                	slli	t3,t3,0x27
    80006572:	1e1e                	slli	t3,t3,0x27
    80006574:	1e1e                	slli	t3,t3,0x27
    80006576:	1e1e                	slli	t3,t3,0x27
    80006578:	1e1e                	slli	t3,t3,0x27
    8000657a:	1e1e                	slli	t3,t3,0x27
    8000657c:	1e1e                	slli	t3,t3,0x27
    8000657e:	1e1e                	slli	t3,t3,0x27
    80006580:	1e1e                	slli	t3,t3,0x27
    80006582:	1e1e                	slli	t3,t3,0x27
    80006584:	1e1e                	slli	t3,t3,0x27
    80006586:	1e1e                	slli	t3,t3,0x27
    80006588:	1e1e                	slli	t3,t3,0x27
    8000658a:	1e1e                	slli	t3,t3,0x27
    8000658c:	1e1e                	slli	t3,t3,0x27
    8000658e:	1e1e                	slli	t3,t3,0x27
    80006590:	1e1e                	slli	t3,t3,0x27
    80006592:	1e1e                	slli	t3,t3,0x27
    80006594:	1e1e                	slli	t3,t3,0x27
    80006596:	1e1e                	slli	t3,t3,0x27
    80006598:	1e1e                	slli	t3,t3,0x27
    8000659a:	1e1e                	slli	t3,t3,0x27
    8000659c:	1e1e                	slli	t3,t3,0x27
    8000659e:	1e1e                	slli	t3,t3,0x27
    800065a0:	1e1e                	slli	t3,t3,0x27
    800065a2:	1e1e                	slli	t3,t3,0x27
    800065a4:	1e1e                	slli	t3,t3,0x27
    800065a6:	1e1e                	slli	t3,t3,0x27
    800065a8:	1e1e                	slli	t3,t3,0x27
    800065aa:	1e1e                	slli	t3,t3,0x27
    800065ac:	1e1e                	slli	t3,t3,0x27
    800065ae:	1e1e                	slli	t3,t3,0x27
    800065b0:	1e1e                	slli	t3,t3,0x27
    800065b2:	1e1e                	slli	t3,t3,0x27
    800065b4:	1e1e                	slli	t3,t3,0x27
    800065b6:	1e1e                	slli	t3,t3,0x27
    800065b8:	1e1e                	slli	t3,t3,0x27
    800065ba:	1e1e                	slli	t3,t3,0x27
    800065bc:	1e1e                	slli	t3,t3,0x27
    800065be:	1e1e                	slli	t3,t3,0x27
    800065c0:	1e1e                	slli	t3,t3,0x27
    800065c2:	1e1e                	slli	t3,t3,0x27
    800065c4:	1e1e                	slli	t3,t3,0x27
    800065c6:	1e1e                	slli	t3,t3,0x27
    800065c8:	1e1e                	slli	t3,t3,0x27
    800065ca:	1e1e                	slli	t3,t3,0x27
    800065cc:	1e1e                	slli	t3,t3,0x27
    800065ce:	1e1e                	slli	t3,t3,0x27
    800065d0:	1e1e                	slli	t3,t3,0x27
    800065d2:	1e1e                	slli	t3,t3,0x27
    800065d4:	1e1e                	slli	t3,t3,0x27
    800065d6:	1e1e                	slli	t3,t3,0x27
    800065d8:	1e1e                	slli	t3,t3,0x27
    800065da:	1e1e                	slli	t3,t3,0x27
    800065dc:	1e1e                	slli	t3,t3,0x27
    800065de:	1e1e                	slli	t3,t3,0x27
    800065e0:	1e1e                	slli	t3,t3,0x27
    800065e2:	1e1e                	slli	t3,t3,0x27
    800065e4:	1e1e                	slli	t3,t3,0x27
    800065e6:	1e1e                	slli	t3,t3,0x27
    800065e8:	1e1e                	slli	t3,t3,0x27
    800065ea:	1e1e                	slli	t3,t3,0x27
    800065ec:	1e1e                	slli	t3,t3,0x27
    800065ee:	1e1e                	slli	t3,t3,0x27
    800065f0:	1e1e                	slli	t3,t3,0x27
    800065f2:	1e1e                	slli	t3,t3,0x27
    800065f4:	1e1e                	slli	t3,t3,0x27
    800065f6:	1e1e                	slli	t3,t3,0x27
    800065f8:	1e1e                	slli	t3,t3,0x27
    800065fa:	1e1e                	slli	t3,t3,0x27
    800065fc:	1e1e                	slli	t3,t3,0x27
    800065fe:	1e1e                	slli	t3,t3,0x27
    80006600:	1e1e                	slli	t3,t3,0x27
    80006602:	1e1e                	slli	t3,t3,0x27
    80006604:	1e1e                	slli	t3,t3,0x27
    80006606:	1e1e                	slli	t3,t3,0x27
    80006608:	1e1e                	slli	t3,t3,0x27
    8000660a:	1e1e                	slli	t3,t3,0x27
    8000660c:	1e1e                	slli	t3,t3,0x27
    8000660e:	1e1e                	slli	t3,t3,0x27
    80006610:	1e1e                	slli	t3,t3,0x27
    80006612:	1e1e                	slli	t3,t3,0x27
    80006614:	1e1e                	slli	t3,t3,0x27
    80006616:	1e1e                	slli	t3,t3,0x27
    80006618:	1e1e                	slli	t3,t3,0x27
    8000661a:	1e1e                	slli	t3,t3,0x27
    8000661c:	1e1e                	slli	t3,t3,0x27
    8000661e:	1e1e                	slli	t3,t3,0x27
    80006620:	1e1e                	slli	t3,t3,0x27
    80006622:	1e1e                	slli	t3,t3,0x27
    80006624:	1e1e                	slli	t3,t3,0x27
    80006626:	1e1e                	slli	t3,t3,0x27
    80006628:	1e1e                	slli	t3,t3,0x27
    8000662a:	1e1e                	slli	t3,t3,0x27
    8000662c:	1e1e                	slli	t3,t3,0x27
    8000662e:	1e1e                	slli	t3,t3,0x27
    80006630:	1e1e                	slli	t3,t3,0x27
    80006632:	1e1e                	slli	t3,t3,0x27
    80006634:	1e1e                	slli	t3,t3,0x27
    80006636:	1e1e                	slli	t3,t3,0x27
    80006638:	1e1e                	slli	t3,t3,0x27
    8000663a:	1e1e                	slli	t3,t3,0x27
    8000663c:	1e1e                	slli	t3,t3,0x27
    8000663e:	1e1e                	slli	t3,t3,0x27
    80006640:	1e1e                	slli	t3,t3,0x27
    80006642:	1e1e                	slli	t3,t3,0x27
    80006644:	1e1e                	slli	t3,t3,0x27
    80006646:	1e1e                	slli	t3,t3,0x27
    80006648:	1e1e                	slli	t3,t3,0x27
    8000664a:	1e1e                	slli	t3,t3,0x27
    8000664c:	1e1e                	slli	t3,t3,0x27
    8000664e:	1e1e                	slli	t3,t3,0x27
    80006650:	1e1e                	slli	t3,t3,0x27
    80006652:	1e1e                	slli	t3,t3,0x27
    80006654:	1e1e                	slli	t3,t3,0x27
    80006656:	1e1e                	slli	t3,t3,0x27
    80006658:	1e1e                	slli	t3,t3,0x27
    8000665a:	1e1e                	slli	t3,t3,0x27
    8000665c:	1e1e                	slli	t3,t3,0x27
    8000665e:	1e1e                	slli	t3,t3,0x27
    80006660:	1e1e                	slli	t3,t3,0x27
    80006662:	1e1e                	slli	t3,t3,0x27
    80006664:	1e1e                	slli	t3,t3,0x27
    80006666:	1e1e                	slli	t3,t3,0x27
    80006668:	1e1e                	slli	t3,t3,0x27
    8000666a:	1e1e                	slli	t3,t3,0x27
    8000666c:	1e1e                	slli	t3,t3,0x27
    8000666e:	1e1e                	slli	t3,t3,0x27
    80006670:	1e1e                	slli	t3,t3,0x27
    80006672:	1e1e                	slli	t3,t3,0x27
    80006674:	1e1e                	slli	t3,t3,0x27
    80006676:	1e1e                	slli	t3,t3,0x27
    80006678:	1e1e                	slli	t3,t3,0x27
    8000667a:	1e1e                	slli	t3,t3,0x27
    8000667c:	1e1e                	slli	t3,t3,0x27
    8000667e:	1e1e                	slli	t3,t3,0x27
    80006680:	1e1e                	slli	t3,t3,0x27
    80006682:	1e1e                	slli	t3,t3,0x27
    80006684:	1e1e                	slli	t3,t3,0x27
    80006686:	1e1e                	slli	t3,t3,0x27
    80006688:	1e1e                	slli	t3,t3,0x27
    8000668a:	1e1e                	slli	t3,t3,0x27
    8000668c:	1e1e                	slli	t3,t3,0x27
    8000668e:	1e1e                	slli	t3,t3,0x27
    80006690:	1e1e                	slli	t3,t3,0x27
    80006692:	1e1e                	slli	t3,t3,0x27
    80006694:	1e1e                	slli	t3,t3,0x27
    80006696:	1e1e                	slli	t3,t3,0x27
    80006698:	1e1e                	slli	t3,t3,0x27
    8000669a:	1e1e                	slli	t3,t3,0x27
    8000669c:	1e1e                	slli	t3,t3,0x27
    8000669e:	1e1e                	slli	t3,t3,0x27
    800066a0:	1e1e                	slli	t3,t3,0x27
    800066a2:	1e1e                	slli	t3,t3,0x27
    800066a4:	1e1e                	slli	t3,t3,0x27
    800066a6:	1e1e                	slli	t3,t3,0x27
    800066a8:	1e1e                	slli	t3,t3,0x27
    800066aa:	1e1e                	slli	t3,t3,0x27
    800066ac:	1e1e                	slli	t3,t3,0x27
    800066ae:	1e1e                	slli	t3,t3,0x27
    800066b0:	1e1e                	slli	t3,t3,0x27
    800066b2:	1e1e                	slli	t3,t3,0x27
    800066b4:	1e1e                	slli	t3,t3,0x27
    800066b6:	1e1e                	slli	t3,t3,0x27
    800066b8:	1e1e                	slli	t3,t3,0x27
    800066ba:	1e1e                	slli	t3,t3,0x27
    800066bc:	1e1e                	slli	t3,t3,0x27
    800066be:	1e1e                	slli	t3,t3,0x27
    800066c0:	1e1e                	slli	t3,t3,0x27
    800066c2:	1e1e                	slli	t3,t3,0x27
    800066c4:	1e1e                	slli	t3,t3,0x27
    800066c6:	1e1e                	slli	t3,t3,0x27
    800066c8:	1e1e                	slli	t3,t3,0x27
    800066ca:	1e1e                	slli	t3,t3,0x27
    800066cc:	1e1e                	slli	t3,t3,0x27
    800066ce:	1e1e                	slli	t3,t3,0x27
    800066d0:	1e1e                	slli	t3,t3,0x27
    800066d2:	1e1e                	slli	t3,t3,0x27
    800066d4:	1e1e                	slli	t3,t3,0x27
    800066d6:	1e1e                	slli	t3,t3,0x27
    800066d8:	1e1e                	slli	t3,t3,0x27
    800066da:	1e1e                	slli	t3,t3,0x27
    800066dc:	1e1e                	slli	t3,t3,0x27
    800066de:	1e1e                	slli	t3,t3,0x27
    800066e0:	1e1e                	slli	t3,t3,0x27
    800066e2:	1e1e                	slli	t3,t3,0x27
    800066e4:	1e1e                	slli	t3,t3,0x27
    800066e6:	1e1e                	slli	t3,t3,0x27
    800066e8:	1e1e                	slli	t3,t3,0x27
    800066ea:	1e1e                	slli	t3,t3,0x27
    800066ec:	1e1e                	slli	t3,t3,0x27
    800066ee:	1e1e                	slli	t3,t3,0x27
    800066f0:	1e1e                	slli	t3,t3,0x27
    800066f2:	1e1e                	slli	t3,t3,0x27
    800066f4:	1e1e                	slli	t3,t3,0x27
    800066f6:	1e1e                	slli	t3,t3,0x27
    800066f8:	1e1e                	slli	t3,t3,0x27
    800066fa:	1e1e                	slli	t3,t3,0x27
    800066fc:	1e1e                	slli	t3,t3,0x27
    800066fe:	1e1e                	slli	t3,t3,0x27
    80006700:	1e1e                	slli	t3,t3,0x27
    80006702:	1e1e                	slli	t3,t3,0x27
    80006704:	1e1e                	slli	t3,t3,0x27
    80006706:	1e1e                	slli	t3,t3,0x27
    80006708:	1e1e                	slli	t3,t3,0x27
    8000670a:	1e1e                	slli	t3,t3,0x27
    8000670c:	1e1e                	slli	t3,t3,0x27
    8000670e:	1e1e                	slli	t3,t3,0x27
    80006710:	1e1e                	slli	t3,t3,0x27
    80006712:	1e1e                	slli	t3,t3,0x27
    80006714:	1e1e                	slli	t3,t3,0x27
    80006716:	1e1e                	slli	t3,t3,0x27
    80006718:	1e1e                	slli	t3,t3,0x27
    8000671a:	1e1e                	slli	t3,t3,0x27
    8000671c:	1e1e                	slli	t3,t3,0x27
    8000671e:	1e1e                	slli	t3,t3,0x27
    80006720:	1e1e                	slli	t3,t3,0x27
    80006722:	1e1e                	slli	t3,t3,0x27
    80006724:	1e1e                	slli	t3,t3,0x27
    80006726:	1e1e                	slli	t3,t3,0x27
    80006728:	1e1e                	slli	t3,t3,0x27
    8000672a:	1e1e                	slli	t3,t3,0x27
    8000672c:	1e1e                	slli	t3,t3,0x27
    8000672e:	1e1e                	slli	t3,t3,0x27
    80006730:	1e1e                	slli	t3,t3,0x27
    80006732:	1e1e                	slli	t3,t3,0x27
    80006734:	1e1e                	slli	t3,t3,0x27
    80006736:	1e1e                	slli	t3,t3,0x27
    80006738:	1e1e                	slli	t3,t3,0x27
    8000673a:	1e1e                	slli	t3,t3,0x27
    8000673c:	1e1e                	slli	t3,t3,0x27
    8000673e:	1e1e                	slli	t3,t3,0x27
    80006740:	1e1e                	slli	t3,t3,0x27
    80006742:	1e1e                	slli	t3,t3,0x27
    80006744:	1e1e                	slli	t3,t3,0x27
    80006746:	1e1e                	slli	t3,t3,0x27
    80006748:	1e1e                	slli	t3,t3,0x27
    8000674a:	1e1e                	slli	t3,t3,0x27
    8000674c:	1e1e                	slli	t3,t3,0x27
    8000674e:	1e1e                	slli	t3,t3,0x27
    80006750:	1e1e                	slli	t3,t3,0x27
    80006752:	1e1e                	slli	t3,t3,0x27
    80006754:	1e1e                	slli	t3,t3,0x27
    80006756:	1e1e                	slli	t3,t3,0x27
    80006758:	1e1e                	slli	t3,t3,0x27
    8000675a:	1e1e                	slli	t3,t3,0x27
    8000675c:	1e1e                	slli	t3,t3,0x27
    8000675e:	1e1e                	slli	t3,t3,0x27
    80006760:	1e1e                	slli	t3,t3,0x27
    80006762:	1e1e                	slli	t3,t3,0x27
    80006764:	1e1e                	slli	t3,t3,0x27
    80006766:	1e1e                	slli	t3,t3,0x27
    80006768:	1e1e                	slli	t3,t3,0x27
    8000676a:	1e1e                	slli	t3,t3,0x27
    8000676c:	1e1e                	slli	t3,t3,0x27
    8000676e:	1e1e                	slli	t3,t3,0x27
    80006770:	1e1e                	slli	t3,t3,0x27
    80006772:	1e1e                	slli	t3,t3,0x27
    80006774:	1e1e                	slli	t3,t3,0x27
    80006776:	1e1e                	slli	t3,t3,0x27
    80006778:	1e1e                	slli	t3,t3,0x27
    8000677a:	1e1e                	slli	t3,t3,0x27
    8000677c:	1e1e                	slli	t3,t3,0x27
    8000677e:	1e1e                	slli	t3,t3,0x27
    80006780:	1e1e                	slli	t3,t3,0x27
    80006782:	1e1e                	slli	t3,t3,0x27
    80006784:	1e1e                	slli	t3,t3,0x27
    80006786:	1e1e                	slli	t3,t3,0x27
    80006788:	1e1e                	slli	t3,t3,0x27
    8000678a:	1e1e                	slli	t3,t3,0x27
    8000678c:	1e1e                	slli	t3,t3,0x27
    8000678e:	1e1e                	slli	t3,t3,0x27
    80006790:	1e1e                	slli	t3,t3,0x27
    80006792:	1e1e                	slli	t3,t3,0x27
    80006794:	1e1e                	slli	t3,t3,0x27
    80006796:	1e1e                	slli	t3,t3,0x27
    80006798:	1e1e                	slli	t3,t3,0x27
    8000679a:	1e1e                	slli	t3,t3,0x27
    8000679c:	1e1e                	slli	t3,t3,0x27
    8000679e:	1e1e                	slli	t3,t3,0x27
    800067a0:	1e1e                	slli	t3,t3,0x27
    800067a2:	1e1e                	slli	t3,t3,0x27
    800067a4:	1e1e                	slli	t3,t3,0x27
    800067a6:	1e1e                	slli	t3,t3,0x27
    800067a8:	1e1e                	slli	t3,t3,0x27
    800067aa:	1e1e                	slli	t3,t3,0x27
    800067ac:	1e1e                	slli	t3,t3,0x27
    800067ae:	1e1e                	slli	t3,t3,0x27
    800067b0:	1e1e                	slli	t3,t3,0x27
    800067b2:	1e1e                	slli	t3,t3,0x27
    800067b4:	1e1e                	slli	t3,t3,0x27
    800067b6:	1e1e                	slli	t3,t3,0x27
    800067b8:	1e1e                	slli	t3,t3,0x27
    800067ba:	1e1e                	slli	t3,t3,0x27
    800067bc:	1e1e                	slli	t3,t3,0x27
    800067be:	1e1e                	slli	t3,t3,0x27
    800067c0:	1e1e                	slli	t3,t3,0x27
    800067c2:	1e1e                	slli	t3,t3,0x27
    800067c4:	1e1e                	slli	t3,t3,0x27
    800067c6:	1e1e                	slli	t3,t3,0x27
    800067c8:	1e1e                	slli	t3,t3,0x27
    800067ca:	1e1e                	slli	t3,t3,0x27
    800067cc:	1e1e                	slli	t3,t3,0x27
    800067ce:	1e1e                	slli	t3,t3,0x27
    800067d0:	1e1e                	slli	t3,t3,0x27
    800067d2:	1e1e                	slli	t3,t3,0x27
    800067d4:	1e1e                	slli	t3,t3,0x27
    800067d6:	1e1e                	slli	t3,t3,0x27
    800067d8:	1e1e                	slli	t3,t3,0x27
    800067da:	1e1e                	slli	t3,t3,0x27
    800067dc:	1e1e                	slli	t3,t3,0x27
    800067de:	1e1e                	slli	t3,t3,0x27
    800067e0:	1e1e                	slli	t3,t3,0x27
    800067e2:	1e1e                	slli	t3,t3,0x27
    800067e4:	1e1e                	slli	t3,t3,0x27
    800067e6:	1e1e                	slli	t3,t3,0x27
    800067e8:	1e1e                	slli	t3,t3,0x27
    800067ea:	1e1e                	slli	t3,t3,0x27
    800067ec:	1e1e                	slli	t3,t3,0x27
    800067ee:	1e1e                	slli	t3,t3,0x27
    800067f0:	1e1e                	slli	t3,t3,0x27
    800067f2:	1e1e                	slli	t3,t3,0x27
    800067f4:	1e1e                	slli	t3,t3,0x27
    800067f6:	1e1e                	slli	t3,t3,0x27
    800067f8:	1e1e                	slli	t3,t3,0x27
    800067fa:	1e1e                	slli	t3,t3,0x27
    800067fc:	1e1e                	slli	t3,t3,0x27
    800067fe:	1e1e                	slli	t3,t3,0x27
    80006800:	1e1e                	slli	t3,t3,0x27
    80006802:	1e1e                	slli	t3,t3,0x27
    80006804:	1e1e                	slli	t3,t3,0x27
    80006806:	1e1e                	slli	t3,t3,0x27
    80006808:	1e1e                	slli	t3,t3,0x27
    8000680a:	1e1e                	slli	t3,t3,0x27
    8000680c:	1e1e                	slli	t3,t3,0x27
    8000680e:	1e1e                	slli	t3,t3,0x27
    80006810:	1e1e                	slli	t3,t3,0x27
    80006812:	1e1e                	slli	t3,t3,0x27
    80006814:	1e1e                	slli	t3,t3,0x27
    80006816:	1e1e                	slli	t3,t3,0x27
    80006818:	1e1e                	slli	t3,t3,0x27
    8000681a:	1e1e                	slli	t3,t3,0x27
    8000681c:	1e1e                	slli	t3,t3,0x27
    8000681e:	1e1e                	slli	t3,t3,0x27
    80006820:	1e1e                	slli	t3,t3,0x27
    80006822:	1e1e                	slli	t3,t3,0x27
    80006824:	1e1e                	slli	t3,t3,0x27
    80006826:	1e1e                	slli	t3,t3,0x27
    80006828:	1e1e                	slli	t3,t3,0x27
    8000682a:	1e1e                	slli	t3,t3,0x27
    8000682c:	1e1e                	slli	t3,t3,0x27
    8000682e:	1e1e                	slli	t3,t3,0x27
    80006830:	1e1e                	slli	t3,t3,0x27
    80006832:	1e1e                	slli	t3,t3,0x27
    80006834:	1e1e                	slli	t3,t3,0x27
    80006836:	1e1e                	slli	t3,t3,0x27
    80006838:	1e1e                	slli	t3,t3,0x27
    8000683a:	1e1e                	slli	t3,t3,0x27
    8000683c:	1e1e                	slli	t3,t3,0x27
    8000683e:	1e1e                	slli	t3,t3,0x27
    80006840:	1e1e                	slli	t3,t3,0x27
    80006842:	1e1e                	slli	t3,t3,0x27
    80006844:	1e1e                	slli	t3,t3,0x27
    80006846:	1e1e                	slli	t3,t3,0x27
    80006848:	1e1e                	slli	t3,t3,0x27
    8000684a:	1e1e                	slli	t3,t3,0x27
    8000684c:	1e1e                	slli	t3,t3,0x27
    8000684e:	1e1e                	slli	t3,t3,0x27
    80006850:	1e1e                	slli	t3,t3,0x27
    80006852:	1e1e                	slli	t3,t3,0x27
    80006854:	1e1e                	slli	t3,t3,0x27
    80006856:	1e1e                	slli	t3,t3,0x27
    80006858:	1e1e                	slli	t3,t3,0x27
    8000685a:	1e1e                	slli	t3,t3,0x27
    8000685c:	1e1e                	slli	t3,t3,0x27
    8000685e:	1e1e                	slli	t3,t3,0x27
    80006860:	1e1e                	slli	t3,t3,0x27
    80006862:	1e1e                	slli	t3,t3,0x27
    80006864:	1e1e                	slli	t3,t3,0x27
    80006866:	1e1e                	slli	t3,t3,0x27
    80006868:	1e1e                	slli	t3,t3,0x27
    8000686a:	1e1e                	slli	t3,t3,0x27
    8000686c:	1e1e                	slli	t3,t3,0x27
    8000686e:	1e1e                	slli	t3,t3,0x27
    80006870:	1e1e                	slli	t3,t3,0x27
    80006872:	1e1e                	slli	t3,t3,0x27
    80006874:	1e1e                	slli	t3,t3,0x27
    80006876:	1e1e                	slli	t3,t3,0x27
    80006878:	1e1e                	slli	t3,t3,0x27
    8000687a:	1e1e                	slli	t3,t3,0x27
    8000687c:	1e1e                	slli	t3,t3,0x27
    8000687e:	1e1e                	slli	t3,t3,0x27
    80006880:	1e1e                	slli	t3,t3,0x27
    80006882:	1e1e                	slli	t3,t3,0x27
    80006884:	1e1e                	slli	t3,t3,0x27
    80006886:	1e1e                	slli	t3,t3,0x27
    80006888:	1e1e                	slli	t3,t3,0x27
    8000688a:	1e1e                	slli	t3,t3,0x27
    8000688c:	1e1e                	slli	t3,t3,0x27
    8000688e:	1e1e                	slli	t3,t3,0x27
    80006890:	1e1e                	slli	t3,t3,0x27
    80006892:	1e1e                	slli	t3,t3,0x27
    80006894:	1e1e                	slli	t3,t3,0x27
    80006896:	1e1e                	slli	t3,t3,0x27
    80006898:	1e1e                	slli	t3,t3,0x27
    8000689a:	1e1e                	slli	t3,t3,0x27
    8000689c:	1e1e                	slli	t3,t3,0x27
    8000689e:	1e1e                	slli	t3,t3,0x27
    800068a0:	1e1e                	slli	t3,t3,0x27
    800068a2:	1e1e                	slli	t3,t3,0x27
    800068a4:	1e1e                	slli	t3,t3,0x27
    800068a6:	1e1e                	slli	t3,t3,0x27
    800068a8:	1e1e                	slli	t3,t3,0x27
    800068aa:	1e1e                	slli	t3,t3,0x27
    800068ac:	1e1e                	slli	t3,t3,0x27
    800068ae:	1e1e                	slli	t3,t3,0x27
    800068b0:	1e1e                	slli	t3,t3,0x27
    800068b2:	1e1e                	slli	t3,t3,0x27
    800068b4:	1e1e                	slli	t3,t3,0x27
    800068b6:	1e1e                	slli	t3,t3,0x27
    800068b8:	1e1e                	slli	t3,t3,0x27
    800068ba:	1e1e                	slli	t3,t3,0x27
    800068bc:	1e1e                	slli	t3,t3,0x27
    800068be:	1e1e                	slli	t3,t3,0x27
    800068c0:	1e1e                	slli	t3,t3,0x27
    800068c2:	1e1e                	slli	t3,t3,0x27
    800068c4:	1e1e                	slli	t3,t3,0x27
    800068c6:	1e1e                	slli	t3,t3,0x27
    800068c8:	1e1e                	slli	t3,t3,0x27
    800068ca:	1e1e                	slli	t3,t3,0x27
    800068cc:	1e1e                	slli	t3,t3,0x27
    800068ce:	1e1e                	slli	t3,t3,0x27
    800068d0:	1e1e                	slli	t3,t3,0x27
    800068d2:	1e1e                	slli	t3,t3,0x27
    800068d4:	1e1e                	slli	t3,t3,0x27
    800068d6:	1e1e                	slli	t3,t3,0x27
    800068d8:	1e1e                	slli	t3,t3,0x27
    800068da:	1e1e                	slli	t3,t3,0x27
    800068dc:	1e1e                	slli	t3,t3,0x27
    800068de:	1e1e                	slli	t3,t3,0x27
    800068e0:	1e1e                	slli	t3,t3,0x27
    800068e2:	1e1e                	slli	t3,t3,0x27
    800068e4:	1e1e                	slli	t3,t3,0x27
    800068e6:	1e1e                	slli	t3,t3,0x27
    800068e8:	1e1e                	slli	t3,t3,0x27
    800068ea:	1e1e                	slli	t3,t3,0x27
    800068ec:	1e1e                	slli	t3,t3,0x27
    800068ee:	1e1e                	slli	t3,t3,0x27
    800068f0:	1e1e                	slli	t3,t3,0x27
    800068f2:	1e1e                	slli	t3,t3,0x27
    800068f4:	1e1e                	slli	t3,t3,0x27
    800068f6:	1e1e                	slli	t3,t3,0x27
    800068f8:	1e1e                	slli	t3,t3,0x27
    800068fa:	1e1e                	slli	t3,t3,0x27
    800068fc:	1e1e                	slli	t3,t3,0x27
    800068fe:	1e1e                	slli	t3,t3,0x27
    80006900:	1e1e                	slli	t3,t3,0x27
    80006902:	1e1e                	slli	t3,t3,0x27
    80006904:	1e1e                	slli	t3,t3,0x27
    80006906:	1e1e                	slli	t3,t3,0x27
    80006908:	1e1e                	slli	t3,t3,0x27
    8000690a:	1e1e                	slli	t3,t3,0x27
    8000690c:	1e1e                	slli	t3,t3,0x27
    8000690e:	1e1e                	slli	t3,t3,0x27
    80006910:	1e1e                	slli	t3,t3,0x27
    80006912:	1e1e                	slli	t3,t3,0x27
    80006914:	1e1e                	slli	t3,t3,0x27
    80006916:	1e1e                	slli	t3,t3,0x27
    80006918:	1e1e                	slli	t3,t3,0x27
    8000691a:	1e1e                	slli	t3,t3,0x27
    8000691c:	1e1e                	slli	t3,t3,0x27
    8000691e:	1e1e                	slli	t3,t3,0x27
    80006920:	1e1e                	slli	t3,t3,0x27
    80006922:	1e1e                	slli	t3,t3,0x27
    80006924:	1e1e                	slli	t3,t3,0x27
    80006926:	1e1e                	slli	t3,t3,0x27
    80006928:	1e1e                	slli	t3,t3,0x27
    8000692a:	1e1e                	slli	t3,t3,0x27
    8000692c:	1e1e                	slli	t3,t3,0x27
    8000692e:	1e1e                	slli	t3,t3,0x27
    80006930:	1e1e                	slli	t3,t3,0x27
    80006932:	1e1e                	slli	t3,t3,0x27
    80006934:	1e1e                	slli	t3,t3,0x27
    80006936:	1e1e                	slli	t3,t3,0x27
    80006938:	1e1e                	slli	t3,t3,0x27
    8000693a:	1e1e                	slli	t3,t3,0x27
    8000693c:	1e1e                	slli	t3,t3,0x27
    8000693e:	1e1e                	slli	t3,t3,0x27
    80006940:	1e1e                	slli	t3,t3,0x27
    80006942:	1e1e                	slli	t3,t3,0x27
    80006944:	1e1e                	slli	t3,t3,0x27
    80006946:	1e1e                	slli	t3,t3,0x27
    80006948:	1e1e                	slli	t3,t3,0x27
    8000694a:	1e1e                	slli	t3,t3,0x27
    8000694c:	1e1e                	slli	t3,t3,0x27
    8000694e:	1e1e                	slli	t3,t3,0x27
    80006950:	1e1e                	slli	t3,t3,0x27
    80006952:	1e1e                	slli	t3,t3,0x27
    80006954:	1e1e                	slli	t3,t3,0x27
    80006956:	1e1e                	slli	t3,t3,0x27
    80006958:	1e1e                	slli	t3,t3,0x27
    8000695a:	1e1e                	slli	t3,t3,0x27
    8000695c:	1e1e                	slli	t3,t3,0x27
    8000695e:	1e1e                	slli	t3,t3,0x27
    80006960:	1e1e                	slli	t3,t3,0x27
    80006962:	1e1e                	slli	t3,t3,0x27
    80006964:	1e1e                	slli	t3,t3,0x27
    80006966:	1e1e                	slli	t3,t3,0x27
    80006968:	1e1e                	slli	t3,t3,0x27
    8000696a:	1e1e                	slli	t3,t3,0x27
    8000696c:	1e1e                	slli	t3,t3,0x27
    8000696e:	1e1e                	slli	t3,t3,0x27
    80006970:	1e1e                	slli	t3,t3,0x27
    80006972:	1e1e                	slli	t3,t3,0x27
    80006974:	1e1e                	slli	t3,t3,0x27
    80006976:	1e1e                	slli	t3,t3,0x27
    80006978:	1e1e                	slli	t3,t3,0x27
    8000697a:	1e1e                	slli	t3,t3,0x27
    8000697c:	1e1e                	slli	t3,t3,0x27
    8000697e:	1e1e                	slli	t3,t3,0x27
    80006980:	1e1e                	slli	t3,t3,0x27
    80006982:	1e1e                	slli	t3,t3,0x27
    80006984:	1e1e                	slli	t3,t3,0x27
    80006986:	1e1e                	slli	t3,t3,0x27
    80006988:	1e1e                	slli	t3,t3,0x27
    8000698a:	1e1e                	slli	t3,t3,0x27
    8000698c:	1e1e                	slli	t3,t3,0x27
    8000698e:	1e1e                	slli	t3,t3,0x27
    80006990:	1e1e                	slli	t3,t3,0x27
    80006992:	1e1e                	slli	t3,t3,0x27
    80006994:	1e1e                	slli	t3,t3,0x27
    80006996:	1e1e                	slli	t3,t3,0x27
    80006998:	1e1e                	slli	t3,t3,0x27
    8000699a:	1e1e                	slli	t3,t3,0x27
    8000699c:	1e1e                	slli	t3,t3,0x27
    8000699e:	1e1e                	slli	t3,t3,0x27
    800069a0:	1e1e                	slli	t3,t3,0x27
    800069a2:	1e1e                	slli	t3,t3,0x27
    800069a4:	1e1e                	slli	t3,t3,0x27
    800069a6:	1e1e                	slli	t3,t3,0x27
    800069a8:	1e1e                	slli	t3,t3,0x27
    800069aa:	1e1e                	slli	t3,t3,0x27
    800069ac:	1e1e                	slli	t3,t3,0x27
    800069ae:	1e1e                	slli	t3,t3,0x27
    800069b0:	1e1e                	slli	t3,t3,0x27
    800069b2:	1e1e                	slli	t3,t3,0x27
    800069b4:	1e1e                	slli	t3,t3,0x27
    800069b6:	1e1e                	slli	t3,t3,0x27
    800069b8:	1e1e                	slli	t3,t3,0x27
    800069ba:	1e1e                	slli	t3,t3,0x27
    800069bc:	1e1e                	slli	t3,t3,0x27
    800069be:	1e1e                	slli	t3,t3,0x27
    800069c0:	1e1e                	slli	t3,t3,0x27
    800069c2:	1e1e                	slli	t3,t3,0x27
    800069c4:	1e1e                	slli	t3,t3,0x27
    800069c6:	1e1e                	slli	t3,t3,0x27
    800069c8:	1e1e                	slli	t3,t3,0x27
    800069ca:	1e1e                	slli	t3,t3,0x27
    800069cc:	1e1e                	slli	t3,t3,0x27
    800069ce:	1e1e                	slli	t3,t3,0x27
    800069d0:	1e1e                	slli	t3,t3,0x27
    800069d2:	1e1e                	slli	t3,t3,0x27
    800069d4:	1e1e                	slli	t3,t3,0x27
    800069d6:	1e1e                	slli	t3,t3,0x27
    800069d8:	1e1e                	slli	t3,t3,0x27
    800069da:	1e1e                	slli	t3,t3,0x27
    800069dc:	1e1e                	slli	t3,t3,0x27
    800069de:	1e1e                	slli	t3,t3,0x27
    800069e0:	1e1e                	slli	t3,t3,0x27
    800069e2:	1e1e                	slli	t3,t3,0x27
    800069e4:	1e1e                	slli	t3,t3,0x27
    800069e6:	1e1e                	slli	t3,t3,0x27
    800069e8:	1e1e                	slli	t3,t3,0x27
    800069ea:	1e1e                	slli	t3,t3,0x27
    800069ec:	1e1e                	slli	t3,t3,0x27
    800069ee:	1e1e                	slli	t3,t3,0x27
    800069f0:	1e1e                	slli	t3,t3,0x27
    800069f2:	1e1e                	slli	t3,t3,0x27
    800069f4:	1e1e                	slli	t3,t3,0x27
    800069f6:	1e1e                	slli	t3,t3,0x27
    800069f8:	1e1e                	slli	t3,t3,0x27
    800069fa:	1e1e                	slli	t3,t3,0x27
    800069fc:	1e1e                	slli	t3,t3,0x27
    800069fe:	1e1e                	slli	t3,t3,0x27
    80006a00:	1e1e                	slli	t3,t3,0x27
    80006a02:	1e1e                	slli	t3,t3,0x27
    80006a04:	1e1e                	slli	t3,t3,0x27
    80006a06:	1e1e                	slli	t3,t3,0x27
    80006a08:	1e1e                	slli	t3,t3,0x27
    80006a0a:	1e1e                	slli	t3,t3,0x27
    80006a0c:	1e1e                	slli	t3,t3,0x27
    80006a0e:	1e1e                	slli	t3,t3,0x27
    80006a10:	1e1e                	slli	t3,t3,0x27
    80006a12:	1e1e                	slli	t3,t3,0x27
    80006a14:	1e1e                	slli	t3,t3,0x27
    80006a16:	1e1e                	slli	t3,t3,0x27
    80006a18:	1e1e                	slli	t3,t3,0x27
    80006a1a:	1e1e                	slli	t3,t3,0x27
    80006a1c:	1e1e                	slli	t3,t3,0x27
    80006a1e:	1e1e                	slli	t3,t3,0x27
    80006a20:	1e1e                	slli	t3,t3,0x27
    80006a22:	1e1e                	slli	t3,t3,0x27
    80006a24:	1e1e                	slli	t3,t3,0x27
    80006a26:	1e1e                	slli	t3,t3,0x27
    80006a28:	1e1e                	slli	t3,t3,0x27
    80006a2a:	1e1e                	slli	t3,t3,0x27
    80006a2c:	1e1e                	slli	t3,t3,0x27
    80006a2e:	1e1e                	slli	t3,t3,0x27
    80006a30:	1e1e                	slli	t3,t3,0x27
    80006a32:	1e1e                	slli	t3,t3,0x27
    80006a34:	1e1e                	slli	t3,t3,0x27
    80006a36:	1e1e                	slli	t3,t3,0x27
    80006a38:	1e1e                	slli	t3,t3,0x27
    80006a3a:	1e1e                	slli	t3,t3,0x27
    80006a3c:	1e1e                	slli	t3,t3,0x27
    80006a3e:	1e1e                	slli	t3,t3,0x27
    80006a40:	1e1e                	slli	t3,t3,0x27
    80006a42:	1e1e                	slli	t3,t3,0x27
    80006a44:	1e1e                	slli	t3,t3,0x27
    80006a46:	1e1e                	slli	t3,t3,0x27
    80006a48:	1e1e                	slli	t3,t3,0x27
    80006a4a:	1e1e                	slli	t3,t3,0x27
    80006a4c:	1e1e                	slli	t3,t3,0x27
    80006a4e:	1e1e                	slli	t3,t3,0x27
    80006a50:	1e1e                	slli	t3,t3,0x27
    80006a52:	1e1e                	slli	t3,t3,0x27
    80006a54:	1e1e                	slli	t3,t3,0x27
    80006a56:	1e1e                	slli	t3,t3,0x27
    80006a58:	1e1e                	slli	t3,t3,0x27
    80006a5a:	1e1e                	slli	t3,t3,0x27
    80006a5c:	1e1e                	slli	t3,t3,0x27
    80006a5e:	1e1e                	slli	t3,t3,0x27
    80006a60:	1e1e                	slli	t3,t3,0x27
    80006a62:	1e1e                	slli	t3,t3,0x27
    80006a64:	1e1e                	slli	t3,t3,0x27
    80006a66:	1e1e                	slli	t3,t3,0x27
    80006a68:	1e1e                	slli	t3,t3,0x27
    80006a6a:	1e1e                	slli	t3,t3,0x27
    80006a6c:	1e1e                	slli	t3,t3,0x27
    80006a6e:	1e1e                	slli	t3,t3,0x27
    80006a70:	1e1e                	slli	t3,t3,0x27
    80006a72:	1e1e                	slli	t3,t3,0x27
    80006a74:	1e1e                	slli	t3,t3,0x27
    80006a76:	1e1e                	slli	t3,t3,0x27
    80006a78:	1e1e                	slli	t3,t3,0x27
    80006a7a:	1e1e                	slli	t3,t3,0x27
    80006a7c:	1e1e                	slli	t3,t3,0x27
    80006a7e:	1e1e                	slli	t3,t3,0x27
    80006a80:	1e1e                	slli	t3,t3,0x27
    80006a82:	1e1e                	slli	t3,t3,0x27
    80006a84:	1e1e                	slli	t3,t3,0x27
    80006a86:	1e1e                	slli	t3,t3,0x27
    80006a88:	1e1e                	slli	t3,t3,0x27
    80006a8a:	1e1e                	slli	t3,t3,0x27
    80006a8c:	1e1e                	slli	t3,t3,0x27
    80006a8e:	1e1e                	slli	t3,t3,0x27
    80006a90:	1e1e                	slli	t3,t3,0x27
    80006a92:	1e1e                	slli	t3,t3,0x27
    80006a94:	1e1e                	slli	t3,t3,0x27
    80006a96:	1e1e                	slli	t3,t3,0x27
    80006a98:	1e1e                	slli	t3,t3,0x27
    80006a9a:	1e1e                	slli	t3,t3,0x27
    80006a9c:	1e1e                	slli	t3,t3,0x27
    80006a9e:	1e1e                	slli	t3,t3,0x27
    80006aa0:	1e1e                	slli	t3,t3,0x27
    80006aa2:	1e1e                	slli	t3,t3,0x27
    80006aa4:	1e1e                	slli	t3,t3,0x27
    80006aa6:	1e1e                	slli	t3,t3,0x27
    80006aa8:	1e1e                	slli	t3,t3,0x27
    80006aaa:	1e1e                	slli	t3,t3,0x27
    80006aac:	1e1e                	slli	t3,t3,0x27
    80006aae:	1e1e                	slli	t3,t3,0x27
    80006ab0:	1e1e                	slli	t3,t3,0x27
    80006ab2:	1e1e                	slli	t3,t3,0x27
    80006ab4:	1e1e                	slli	t3,t3,0x27
    80006ab6:	1e1e                	slli	t3,t3,0x27
    80006ab8:	1e1e                	slli	t3,t3,0x27
    80006aba:	1e1e                	slli	t3,t3,0x27
    80006abc:	1e1e                	slli	t3,t3,0x27
    80006abe:	1e1e                	slli	t3,t3,0x27
    80006ac0:	1e1e                	slli	t3,t3,0x27
    80006ac2:	1e1e                	slli	t3,t3,0x27
    80006ac4:	1e1e                	slli	t3,t3,0x27
    80006ac6:	1e1e                	slli	t3,t3,0x27
    80006ac8:	1e1e                	slli	t3,t3,0x27
    80006aca:	1e1e                	slli	t3,t3,0x27
    80006acc:	1e1e                	slli	t3,t3,0x27
    80006ace:	1e1e                	slli	t3,t3,0x27
    80006ad0:	1e1e                	slli	t3,t3,0x27
    80006ad2:	1e1e                	slli	t3,t3,0x27
    80006ad4:	1e1e                	slli	t3,t3,0x27
    80006ad6:	1e1e                	slli	t3,t3,0x27
    80006ad8:	1e1e                	slli	t3,t3,0x27
    80006ada:	1e1e                	slli	t3,t3,0x27
    80006adc:	1e1e                	slli	t3,t3,0x27
    80006ade:	1e1e                	slli	t3,t3,0x27
    80006ae0:	1e1e                	slli	t3,t3,0x27
    80006ae2:	1e1e                	slli	t3,t3,0x27
    80006ae4:	1e1e                	slli	t3,t3,0x27
    80006ae6:	1e1e                	slli	t3,t3,0x27
    80006ae8:	1e1e                	slli	t3,t3,0x27
    80006aea:	1e1e                	slli	t3,t3,0x27
    80006aec:	1e1e                	slli	t3,t3,0x27
    80006aee:	1e1e                	slli	t3,t3,0x27
    80006af0:	1e1e                	slli	t3,t3,0x27
    80006af2:	1e1e                	slli	t3,t3,0x27
    80006af4:	1e1e                	slli	t3,t3,0x27
    80006af6:	1e1e                	slli	t3,t3,0x27
    80006af8:	1e1e                	slli	t3,t3,0x27
    80006afa:	1e1e                	slli	t3,t3,0x27
    80006afc:	1e1e                	slli	t3,t3,0x27
    80006afe:	1e1e                	slli	t3,t3,0x27
    80006b00:	1e1e                	slli	t3,t3,0x27
    80006b02:	1e1e                	slli	t3,t3,0x27
    80006b04:	1e1e                	slli	t3,t3,0x27
    80006b06:	1e1e                	slli	t3,t3,0x27
    80006b08:	1e1e                	slli	t3,t3,0x27
    80006b0a:	1e1e                	slli	t3,t3,0x27
    80006b0c:	1e1e                	slli	t3,t3,0x27
    80006b0e:	1e1e                	slli	t3,t3,0x27
    80006b10:	1e1e                	slli	t3,t3,0x27
    80006b12:	1e1e                	slli	t3,t3,0x27
    80006b14:	1e1e                	slli	t3,t3,0x27
    80006b16:	1e1e                	slli	t3,t3,0x27
    80006b18:	1e1e                	slli	t3,t3,0x27
    80006b1a:	1e1e                	slli	t3,t3,0x27
    80006b1c:	1e1e                	slli	t3,t3,0x27
    80006b1e:	1e1e                	slli	t3,t3,0x27
    80006b20:	1e1e                	slli	t3,t3,0x27
    80006b22:	1e1e                	slli	t3,t3,0x27
    80006b24:	1e1e                	slli	t3,t3,0x27
    80006b26:	1e1e                	slli	t3,t3,0x27
    80006b28:	1e1e                	slli	t3,t3,0x27
    80006b2a:	1e1e                	slli	t3,t3,0x27
    80006b2c:	1e1e                	slli	t3,t3,0x27
    80006b2e:	1e1e                	slli	t3,t3,0x27
    80006b30:	1e1e                	slli	t3,t3,0x27
    80006b32:	1e1e                	slli	t3,t3,0x27
    80006b34:	1e1e                	slli	t3,t3,0x27
    80006b36:	1e1e                	slli	t3,t3,0x27
    80006b38:	1e1e                	slli	t3,t3,0x27
    80006b3a:	1e1e                	slli	t3,t3,0x27
    80006b3c:	1e1e                	slli	t3,t3,0x27
    80006b3e:	1e1e                	slli	t3,t3,0x27
    80006b40:	1e1e                	slli	t3,t3,0x27
    80006b42:	1e1e                	slli	t3,t3,0x27
    80006b44:	1e1e                	slli	t3,t3,0x27
    80006b46:	1e1e                	slli	t3,t3,0x27
    80006b48:	1e1e                	slli	t3,t3,0x27
    80006b4a:	1e1e                	slli	t3,t3,0x27
    80006b4c:	1e1e                	slli	t3,t3,0x27
    80006b4e:	1e1e                	slli	t3,t3,0x27
    80006b50:	1e1e                	slli	t3,t3,0x27
    80006b52:	1e1e                	slli	t3,t3,0x27
    80006b54:	1e1e                	slli	t3,t3,0x27
    80006b56:	1e1e                	slli	t3,t3,0x27
    80006b58:	1e1e                	slli	t3,t3,0x27
    80006b5a:	1e1e                	slli	t3,t3,0x27
    80006b5c:	1e1e                	slli	t3,t3,0x27
    80006b5e:	1e1e                	slli	t3,t3,0x27
    80006b60:	1e1e                	slli	t3,t3,0x27
    80006b62:	1e1e                	slli	t3,t3,0x27
    80006b64:	1e1e                	slli	t3,t3,0x27
    80006b66:	1e1e                	slli	t3,t3,0x27
    80006b68:	1e1e                	slli	t3,t3,0x27
    80006b6a:	1e1e                	slli	t3,t3,0x27
    80006b6c:	1e1e                	slli	t3,t3,0x27
    80006b6e:	1e1e                	slli	t3,t3,0x27
    80006b70:	1e1e                	slli	t3,t3,0x27
    80006b72:	1e1e                	slli	t3,t3,0x27
    80006b74:	1e1e                	slli	t3,t3,0x27
    80006b76:	1e1e                	slli	t3,t3,0x27
    80006b78:	1e1e                	slli	t3,t3,0x27
    80006b7a:	1e1e                	slli	t3,t3,0x27
    80006b7c:	1e1e                	slli	t3,t3,0x27
    80006b7e:	1e1e                	slli	t3,t3,0x27
    80006b80:	1e1e                	slli	t3,t3,0x27
    80006b82:	1e1e                	slli	t3,t3,0x27
    80006b84:	1e1e                	slli	t3,t3,0x27
    80006b86:	1e1e                	slli	t3,t3,0x27
    80006b88:	1e1e                	slli	t3,t3,0x27
    80006b8a:	1e1e                	slli	t3,t3,0x27
    80006b8c:	1e1e                	slli	t3,t3,0x27
    80006b8e:	1e1e                	slli	t3,t3,0x27
    80006b90:	1e1e                	slli	t3,t3,0x27
    80006b92:	1e1e                	slli	t3,t3,0x27
    80006b94:	1e1e                	slli	t3,t3,0x27
    80006b96:	1e1e                	slli	t3,t3,0x27
    80006b98:	1e1e                	slli	t3,t3,0x27
    80006b9a:	1e1e                	slli	t3,t3,0x27
    80006b9c:	1e1e                	slli	t3,t3,0x27
    80006b9e:	1e1e                	slli	t3,t3,0x27
    80006ba0:	1e1e                	slli	t3,t3,0x27
    80006ba2:	1e1e                	slli	t3,t3,0x27
    80006ba4:	1e1e                	slli	t3,t3,0x27
    80006ba6:	1e1e                	slli	t3,t3,0x27
    80006ba8:	1e1e                	slli	t3,t3,0x27
    80006baa:	1e1e                	slli	t3,t3,0x27
    80006bac:	1e1e                	slli	t3,t3,0x27
    80006bae:	1e1e                	slli	t3,t3,0x27
    80006bb0:	1e1e                	slli	t3,t3,0x27
    80006bb2:	1e1e                	slli	t3,t3,0x27
    80006bb4:	1e1e                	slli	t3,t3,0x27
    80006bb6:	1e1e                	slli	t3,t3,0x27
    80006bb8:	1e1e                	slli	t3,t3,0x27
    80006bba:	1e1e                	slli	t3,t3,0x27
    80006bbc:	1e1e                	slli	t3,t3,0x27
    80006bbe:	1e1e                	slli	t3,t3,0x27
    80006bc0:	1e1e                	slli	t3,t3,0x27
    80006bc2:	1e1e                	slli	t3,t3,0x27
    80006bc4:	1e1e                	slli	t3,t3,0x27
    80006bc6:	1e1e                	slli	t3,t3,0x27
    80006bc8:	1e1e                	slli	t3,t3,0x27
    80006bca:	1e1e                	slli	t3,t3,0x27
    80006bcc:	1e1e                	slli	t3,t3,0x27
    80006bce:	1e1e                	slli	t3,t3,0x27
    80006bd0:	1e1e                	slli	t3,t3,0x27
    80006bd2:	1e1e                	slli	t3,t3,0x27
    80006bd4:	1e1e                	slli	t3,t3,0x27
    80006bd6:	1e1e                	slli	t3,t3,0x27
    80006bd8:	1e1e                	slli	t3,t3,0x27
    80006bda:	1e1e                	slli	t3,t3,0x27
    80006bdc:	1e1e                	slli	t3,t3,0x27
    80006bde:	1e1e                	slli	t3,t3,0x27
    80006be0:	1e1e                	slli	t3,t3,0x27
    80006be2:	1e1e                	slli	t3,t3,0x27
    80006be4:	1e1e                	slli	t3,t3,0x27
    80006be6:	1e1e                	slli	t3,t3,0x27
    80006be8:	1e1e                	slli	t3,t3,0x27
    80006bea:	1e1e                	slli	t3,t3,0x27
    80006bec:	1e1e                	slli	t3,t3,0x27
    80006bee:	1e1e                	slli	t3,t3,0x27
    80006bf0:	1e1e                	slli	t3,t3,0x27
    80006bf2:	1e1e                	slli	t3,t3,0x27
    80006bf4:	1e1e                	slli	t3,t3,0x27
    80006bf6:	1e1e                	slli	t3,t3,0x27
    80006bf8:	1e1e                	slli	t3,t3,0x27
    80006bfa:	1e1e                	slli	t3,t3,0x27
    80006bfc:	1e1e                	slli	t3,t3,0x27
    80006bfe:	1e1e                	slli	t3,t3,0x27
    80006c00:	1e1e                	slli	t3,t3,0x27
    80006c02:	1e1e                	slli	t3,t3,0x27
    80006c04:	1e1e                	slli	t3,t3,0x27
    80006c06:	1e1e                	slli	t3,t3,0x27
    80006c08:	1e1e                	slli	t3,t3,0x27
    80006c0a:	1e1e                	slli	t3,t3,0x27
    80006c0c:	1e1e                	slli	t3,t3,0x27
    80006c0e:	1e1e                	slli	t3,t3,0x27
    80006c10:	1e1e                	slli	t3,t3,0x27
    80006c12:	1e1e                	slli	t3,t3,0x27
    80006c14:	1e1e                	slli	t3,t3,0x27
    80006c16:	1e1e                	slli	t3,t3,0x27
    80006c18:	1e1e                	slli	t3,t3,0x27
    80006c1a:	1e1e                	slli	t3,t3,0x27
    80006c1c:	1e1e                	slli	t3,t3,0x27
    80006c1e:	1e1e                	slli	t3,t3,0x27
    80006c20:	1e1e                	slli	t3,t3,0x27
    80006c22:	1e1e                	slli	t3,t3,0x27
    80006c24:	1e1e                	slli	t3,t3,0x27
    80006c26:	1e1e                	slli	t3,t3,0x27
    80006c28:	1e1e                	slli	t3,t3,0x27
    80006c2a:	1e1e                	slli	t3,t3,0x27
    80006c2c:	1e1e                	slli	t3,t3,0x27
    80006c2e:	1e1e                	slli	t3,t3,0x27
    80006c30:	1e1e                	slli	t3,t3,0x27
    80006c32:	1e1e                	slli	t3,t3,0x27
    80006c34:	1e1e                	slli	t3,t3,0x27
    80006c36:	1e1e                	slli	t3,t3,0x27
    80006c38:	1e1e                	slli	t3,t3,0x27
    80006c3a:	1e1e                	slli	t3,t3,0x27
    80006c3c:	1e1e                	slli	t3,t3,0x27
    80006c3e:	1e1e                	slli	t3,t3,0x27
    80006c40:	1e1e                	slli	t3,t3,0x27
    80006c42:	1e1e                	slli	t3,t3,0x27
    80006c44:	1e1e                	slli	t3,t3,0x27
    80006c46:	1e1e                	slli	t3,t3,0x27
    80006c48:	1e1e                	slli	t3,t3,0x27
    80006c4a:	1e1e                	slli	t3,t3,0x27
    80006c4c:	1e1e                	slli	t3,t3,0x27
    80006c4e:	1e1e                	slli	t3,t3,0x27
    80006c50:	1e1e                	slli	t3,t3,0x27
    80006c52:	1e1e                	slli	t3,t3,0x27
    80006c54:	1e1e                	slli	t3,t3,0x27
    80006c56:	1e1e                	slli	t3,t3,0x27
    80006c58:	1e1e                	slli	t3,t3,0x27
    80006c5a:	1e1e                	slli	t3,t3,0x27
    80006c5c:	1e1e                	slli	t3,t3,0x27
    80006c5e:	1e1e                	slli	t3,t3,0x27
    80006c60:	1e1e                	slli	t3,t3,0x27
    80006c62:	1e1e                	slli	t3,t3,0x27
    80006c64:	1e1e                	slli	t3,t3,0x27
    80006c66:	1e1e                	slli	t3,t3,0x27
    80006c68:	1e1e                	slli	t3,t3,0x27
    80006c6a:	1e1e                	slli	t3,t3,0x27
    80006c6c:	1e1e                	slli	t3,t3,0x27
    80006c6e:	1e1e                	slli	t3,t3,0x27
    80006c70:	1e1e                	slli	t3,t3,0x27
    80006c72:	1e1e                	slli	t3,t3,0x27
    80006c74:	1e1e                	slli	t3,t3,0x27
    80006c76:	1e1e                	slli	t3,t3,0x27
    80006c78:	1e1e                	slli	t3,t3,0x27
    80006c7a:	1e1e                	slli	t3,t3,0x27
    80006c7c:	1e1e                	slli	t3,t3,0x27
    80006c7e:	1e1e                	slli	t3,t3,0x27
    80006c80:	1e1e                	slli	t3,t3,0x27
    80006c82:	1e1e                	slli	t3,t3,0x27
    80006c84:	1e1e                	slli	t3,t3,0x27
    80006c86:	1e1e                	slli	t3,t3,0x27
    80006c88:	1e1e                	slli	t3,t3,0x27
    80006c8a:	1e1e                	slli	t3,t3,0x27
    80006c8c:	1e1e                	slli	t3,t3,0x27
    80006c8e:	1e1e                	slli	t3,t3,0x27
    80006c90:	1e1e                	slli	t3,t3,0x27
    80006c92:	1e1e                	slli	t3,t3,0x27
    80006c94:	1e1e                	slli	t3,t3,0x27
    80006c96:	1e1e                	slli	t3,t3,0x27
    80006c98:	1e1e                	slli	t3,t3,0x27
    80006c9a:	1e1e                	slli	t3,t3,0x27
    80006c9c:	1e1e                	slli	t3,t3,0x27
    80006c9e:	1e1e                	slli	t3,t3,0x27
    80006ca0:	1e1e                	slli	t3,t3,0x27
    80006ca2:	1e1e                	slli	t3,t3,0x27
    80006ca4:	1e1e                	slli	t3,t3,0x27
    80006ca6:	1e1e                	slli	t3,t3,0x27
    80006ca8:	1e1e                	slli	t3,t3,0x27
    80006caa:	1e1e                	slli	t3,t3,0x27
    80006cac:	1e1e                	slli	t3,t3,0x27
    80006cae:	1e1e                	slli	t3,t3,0x27
    80006cb0:	1e1e                	slli	t3,t3,0x27
    80006cb2:	1e1e                	slli	t3,t3,0x27
    80006cb4:	1e1e                	slli	t3,t3,0x27
    80006cb6:	1e1e                	slli	t3,t3,0x27
    80006cb8:	1e1e                	slli	t3,t3,0x27
    80006cba:	1e1e                	slli	t3,t3,0x27
    80006cbc:	1e1e                	slli	t3,t3,0x27
    80006cbe:	1e1e                	slli	t3,t3,0x27
    80006cc0:	1e1e                	slli	t3,t3,0x27
    80006cc2:	1e1e                	slli	t3,t3,0x27
    80006cc4:	1e1e                	slli	t3,t3,0x27
    80006cc6:	1e1e                	slli	t3,t3,0x27
    80006cc8:	1e1e                	slli	t3,t3,0x27
    80006cca:	1e1e                	slli	t3,t3,0x27
    80006ccc:	1e1e                	slli	t3,t3,0x27
    80006cce:	1e1e                	slli	t3,t3,0x27
    80006cd0:	1e1e                	slli	t3,t3,0x27
    80006cd2:	1e1e                	slli	t3,t3,0x27
    80006cd4:	1e1e                	slli	t3,t3,0x27
    80006cd6:	1e1e                	slli	t3,t3,0x27
    80006cd8:	1e1e                	slli	t3,t3,0x27
    80006cda:	1e1e                	slli	t3,t3,0x27
    80006cdc:	1e1e                	slli	t3,t3,0x27
    80006cde:	1e1e                	slli	t3,t3,0x27
    80006ce0:	1e1e                	slli	t3,t3,0x27
    80006ce2:	1e1e                	slli	t3,t3,0x27
    80006ce4:	1e1e                	slli	t3,t3,0x27
    80006ce6:	1e1e                	slli	t3,t3,0x27
    80006ce8:	1e1e                	slli	t3,t3,0x27
    80006cea:	1e1e                	slli	t3,t3,0x27
    80006cec:	1e1e                	slli	t3,t3,0x27
    80006cee:	1e1e                	slli	t3,t3,0x27
    80006cf0:	1e1e                	slli	t3,t3,0x27
    80006cf2:	1e1e                	slli	t3,t3,0x27
    80006cf4:	1e1e                	slli	t3,t3,0x27
    80006cf6:	1e1e                	slli	t3,t3,0x27
    80006cf8:	1e1e                	slli	t3,t3,0x27
    80006cfa:	1e1e                	slli	t3,t3,0x27
    80006cfc:	1e1e                	slli	t3,t3,0x27
    80006cfe:	1e1e                	slli	t3,t3,0x27
    80006d00:	1e1e                	slli	t3,t3,0x27
    80006d02:	1e1e                	slli	t3,t3,0x27
    80006d04:	1e1e                	slli	t3,t3,0x27
    80006d06:	1e1e                	slli	t3,t3,0x27
    80006d08:	1e1e                	slli	t3,t3,0x27
    80006d0a:	1e1e                	slli	t3,t3,0x27
    80006d0c:	1e1e                	slli	t3,t3,0x27
    80006d0e:	1e1e                	slli	t3,t3,0x27
    80006d10:	1e1e                	slli	t3,t3,0x27
    80006d12:	1e1e                	slli	t3,t3,0x27
    80006d14:	1e1e                	slli	t3,t3,0x27
    80006d16:	1e1e                	slli	t3,t3,0x27
    80006d18:	1e1e                	slli	t3,t3,0x27
    80006d1a:	1e1e                	slli	t3,t3,0x27
    80006d1c:	1e1e                	slli	t3,t3,0x27
    80006d1e:	1e1e                	slli	t3,t3,0x27
    80006d20:	1e1e                	slli	t3,t3,0x27
    80006d22:	1e1e                	slli	t3,t3,0x27
    80006d24:	1e1e                	slli	t3,t3,0x27
    80006d26:	1e1e                	slli	t3,t3,0x27
    80006d28:	1e1e                	slli	t3,t3,0x27
    80006d2a:	1e1e                	slli	t3,t3,0x27
    80006d2c:	1e1e                	slli	t3,t3,0x27
    80006d2e:	1e1e                	slli	t3,t3,0x27
    80006d30:	1e1e                	slli	t3,t3,0x27
    80006d32:	1e1e                	slli	t3,t3,0x27
    80006d34:	1e1e                	slli	t3,t3,0x27
    80006d36:	1e1e                	slli	t3,t3,0x27
    80006d38:	1e1e                	slli	t3,t3,0x27
    80006d3a:	1e1e                	slli	t3,t3,0x27
    80006d3c:	1e1e                	slli	t3,t3,0x27
    80006d3e:	1e1e                	slli	t3,t3,0x27
    80006d40:	1e1e                	slli	t3,t3,0x27
    80006d42:	1e1e                	slli	t3,t3,0x27
    80006d44:	1e1e                	slli	t3,t3,0x27
    80006d46:	1e1e                	slli	t3,t3,0x27
    80006d48:	1e1e                	slli	t3,t3,0x27
    80006d4a:	1e1e                	slli	t3,t3,0x27
    80006d4c:	1e1e                	slli	t3,t3,0x27
    80006d4e:	1e1e                	slli	t3,t3,0x27
    80006d50:	1e1e                	slli	t3,t3,0x27
    80006d52:	1e1e                	slli	t3,t3,0x27
    80006d54:	1e1e                	slli	t3,t3,0x27
    80006d56:	1e1e                	slli	t3,t3,0x27
    80006d58:	1e1e                	slli	t3,t3,0x27
    80006d5a:	1e1e                	slli	t3,t3,0x27
    80006d5c:	1e1e                	slli	t3,t3,0x27
    80006d5e:	1e1e                	slli	t3,t3,0x27
    80006d60:	1e1e                	slli	t3,t3,0x27
    80006d62:	1e1e                	slli	t3,t3,0x27
    80006d64:	1e1e                	slli	t3,t3,0x27
    80006d66:	1e1e                	slli	t3,t3,0x27
    80006d68:	1e1e                	slli	t3,t3,0x27
    80006d6a:	1e1e                	slli	t3,t3,0x27
    80006d6c:	1e1e                	slli	t3,t3,0x27
    80006d6e:	1e1e                	slli	t3,t3,0x27
    80006d70:	1e1e                	slli	t3,t3,0x27
    80006d72:	1e1e                	slli	t3,t3,0x27
    80006d74:	1e1e                	slli	t3,t3,0x27
    80006d76:	1e1e                	slli	t3,t3,0x27
    80006d78:	1e1e                	slli	t3,t3,0x27
    80006d7a:	1e1e                	slli	t3,t3,0x27
    80006d7c:	1e1e                	slli	t3,t3,0x27
    80006d7e:	1e1e                	slli	t3,t3,0x27
    80006d80:	1e1e                	slli	t3,t3,0x27
    80006d82:	1e1e                	slli	t3,t3,0x27
    80006d84:	1e1e                	slli	t3,t3,0x27
    80006d86:	1e1e                	slli	t3,t3,0x27
    80006d88:	1e1e                	slli	t3,t3,0x27
    80006d8a:	1e1e                	slli	t3,t3,0x27
    80006d8c:	1e1e                	slli	t3,t3,0x27
    80006d8e:	1e1e                	slli	t3,t3,0x27
    80006d90:	1e1e                	slli	t3,t3,0x27
    80006d92:	1e1e                	slli	t3,t3,0x27
    80006d94:	1e1e                	slli	t3,t3,0x27
    80006d96:	1e1e                	slli	t3,t3,0x27
    80006d98:	1e1e                	slli	t3,t3,0x27
    80006d9a:	1e1e                	slli	t3,t3,0x27
    80006d9c:	1e1e                	slli	t3,t3,0x27
    80006d9e:	1e1e                	slli	t3,t3,0x27
    80006da0:	1e1e                	slli	t3,t3,0x27
    80006da2:	1e1e                	slli	t3,t3,0x27
    80006da4:	1e1e                	slli	t3,t3,0x27
    80006da6:	1e1e                	slli	t3,t3,0x27
    80006da8:	1e1e                	slli	t3,t3,0x27
    80006daa:	1e1e                	slli	t3,t3,0x27
    80006dac:	1e1e                	slli	t3,t3,0x27
    80006dae:	1e1e                	slli	t3,t3,0x27
    80006db0:	1e1e                	slli	t3,t3,0x27
    80006db2:	1e1e                	slli	t3,t3,0x27
    80006db4:	1e1e                	slli	t3,t3,0x27
    80006db6:	1e1e                	slli	t3,t3,0x27
    80006db8:	1e1e                	slli	t3,t3,0x27
    80006dba:	1e1e                	slli	t3,t3,0x27
    80006dbc:	1e1e                	slli	t3,t3,0x27
    80006dbe:	1e1e                	slli	t3,t3,0x27
    80006dc0:	1e1e                	slli	t3,t3,0x27
    80006dc2:	1e1e                	slli	t3,t3,0x27
    80006dc4:	1e1e                	slli	t3,t3,0x27
    80006dc6:	1e1e                	slli	t3,t3,0x27
    80006dc8:	1e1e                	slli	t3,t3,0x27
    80006dca:	1e1e                	slli	t3,t3,0x27
    80006dcc:	1e1e                	slli	t3,t3,0x27
    80006dce:	1e1e                	slli	t3,t3,0x27
    80006dd0:	1e1e                	slli	t3,t3,0x27
    80006dd2:	1e1e                	slli	t3,t3,0x27
    80006dd4:	1e1e                	slli	t3,t3,0x27
    80006dd6:	1e1e                	slli	t3,t3,0x27
    80006dd8:	1e1e                	slli	t3,t3,0x27
    80006dda:	1e1e                	slli	t3,t3,0x27
    80006ddc:	1e1e                	slli	t3,t3,0x27
    80006dde:	1e1e                	slli	t3,t3,0x27
    80006de0:	1e1e                	slli	t3,t3,0x27
    80006de2:	1e1e                	slli	t3,t3,0x27
    80006de4:	1e1e                	slli	t3,t3,0x27
    80006de6:	1e1e                	slli	t3,t3,0x27
    80006de8:	1e1e                	slli	t3,t3,0x27
    80006dea:	1e1e                	slli	t3,t3,0x27
    80006dec:	1e1e                	slli	t3,t3,0x27
    80006dee:	1e1e                	slli	t3,t3,0x27
    80006df0:	1e1e                	slli	t3,t3,0x27
    80006df2:	1e1e                	slli	t3,t3,0x27
    80006df4:	1e1e                	slli	t3,t3,0x27
    80006df6:	1e1e                	slli	t3,t3,0x27
    80006df8:	1e1e                	slli	t3,t3,0x27
    80006dfa:	1e1e                	slli	t3,t3,0x27
    80006dfc:	1e1e                	slli	t3,t3,0x27
    80006dfe:	1e1e                	slli	t3,t3,0x27
    80006e00:	1e1e                	slli	t3,t3,0x27
    80006e02:	1e1e                	slli	t3,t3,0x27
    80006e04:	1e1e                	slli	t3,t3,0x27
    80006e06:	1e1e                	slli	t3,t3,0x27
    80006e08:	1e1e                	slli	t3,t3,0x27
    80006e0a:	1e1e                	slli	t3,t3,0x27
    80006e0c:	1e1e                	slli	t3,t3,0x27
    80006e0e:	1e1e                	slli	t3,t3,0x27
    80006e10:	1e1e                	slli	t3,t3,0x27
    80006e12:	1e1e                	slli	t3,t3,0x27
    80006e14:	1e1e                	slli	t3,t3,0x27
    80006e16:	1e1e                	slli	t3,t3,0x27
    80006e18:	1e1e                	slli	t3,t3,0x27
    80006e1a:	1e1e                	slli	t3,t3,0x27
    80006e1c:	1e1e                	slli	t3,t3,0x27
    80006e1e:	1e1e                	slli	t3,t3,0x27
    80006e20:	1e1e                	slli	t3,t3,0x27
    80006e22:	1e1e                	slli	t3,t3,0x27
    80006e24:	1e1e                	slli	t3,t3,0x27
    80006e26:	1e1e                	slli	t3,t3,0x27
    80006e28:	1e1e                	slli	t3,t3,0x27
    80006e2a:	1e1e                	slli	t3,t3,0x27
    80006e2c:	1e1e                	slli	t3,t3,0x27
    80006e2e:	1e1e                	slli	t3,t3,0x27
    80006e30:	1e1e                	slli	t3,t3,0x27
    80006e32:	1e1e                	slli	t3,t3,0x27
    80006e34:	1e1e                	slli	t3,t3,0x27
    80006e36:	1e1e                	slli	t3,t3,0x27
    80006e38:	1e1e                	slli	t3,t3,0x27
    80006e3a:	1e1e                	slli	t3,t3,0x27
    80006e3c:	1e1e                	slli	t3,t3,0x27
    80006e3e:	1e1e                	slli	t3,t3,0x27
    80006e40:	1e1e                	slli	t3,t3,0x27
    80006e42:	1e1e                	slli	t3,t3,0x27
    80006e44:	1e1e                	slli	t3,t3,0x27
    80006e46:	1e1e                	slli	t3,t3,0x27
    80006e48:	1e1e                	slli	t3,t3,0x27
    80006e4a:	1e1e                	slli	t3,t3,0x27
    80006e4c:	1e1e                	slli	t3,t3,0x27
    80006e4e:	1e1e                	slli	t3,t3,0x27
    80006e50:	1e1e                	slli	t3,t3,0x27
    80006e52:	1e1e                	slli	t3,t3,0x27
    80006e54:	1e1e                	slli	t3,t3,0x27
    80006e56:	1e1e                	slli	t3,t3,0x27
    80006e58:	1e1e                	slli	t3,t3,0x27
    80006e5a:	1e1e                	slli	t3,t3,0x27
    80006e5c:	1e1e                	slli	t3,t3,0x27
    80006e5e:	1e1e                	slli	t3,t3,0x27
    80006e60:	1e1e                	slli	t3,t3,0x27
    80006e62:	1e1e                	slli	t3,t3,0x27
    80006e64:	1e1e                	slli	t3,t3,0x27
    80006e66:	1e1e                	slli	t3,t3,0x27
    80006e68:	1e1e                	slli	t3,t3,0x27
    80006e6a:	1e1e                	slli	t3,t3,0x27
    80006e6c:	1e1e                	slli	t3,t3,0x27
    80006e6e:	1e1e                	slli	t3,t3,0x27
    80006e70:	1e1e                	slli	t3,t3,0x27
    80006e72:	1e1e                	slli	t3,t3,0x27
    80006e74:	1e1e                	slli	t3,t3,0x27
    80006e76:	1e1e                	slli	t3,t3,0x27
    80006e78:	1e1e                	slli	t3,t3,0x27
    80006e7a:	1e1e                	slli	t3,t3,0x27
    80006e7c:	1e1e                	slli	t3,t3,0x27
    80006e7e:	1e1e                	slli	t3,t3,0x27
    80006e80:	1e1e                	slli	t3,t3,0x27
    80006e82:	1e1e                	slli	t3,t3,0x27
    80006e84:	1e1e                	slli	t3,t3,0x27
    80006e86:	1e1e                	slli	t3,t3,0x27
    80006e88:	1e1e                	slli	t3,t3,0x27
    80006e8a:	1e1e                	slli	t3,t3,0x27
    80006e8c:	1e1e                	slli	t3,t3,0x27
    80006e8e:	1e1e                	slli	t3,t3,0x27
    80006e90:	1e1e                	slli	t3,t3,0x27
    80006e92:	1e1e                	slli	t3,t3,0x27
    80006e94:	1e1e                	slli	t3,t3,0x27
    80006e96:	1e1e                	slli	t3,t3,0x27
    80006e98:	1e1e                	slli	t3,t3,0x27
    80006e9a:	1e1e                	slli	t3,t3,0x27
    80006e9c:	1e1e                	slli	t3,t3,0x27
    80006e9e:	1e1e                	slli	t3,t3,0x27
    80006ea0:	1e1e                	slli	t3,t3,0x27
    80006ea2:	1e1e                	slli	t3,t3,0x27
    80006ea4:	1e1e                	slli	t3,t3,0x27
    80006ea6:	1e1e                	slli	t3,t3,0x27
    80006ea8:	1e1e                	slli	t3,t3,0x27
    80006eaa:	1e1e                	slli	t3,t3,0x27
    80006eac:	1e1e                	slli	t3,t3,0x27
    80006eae:	1e1e                	slli	t3,t3,0x27
    80006eb0:	1e1e                	slli	t3,t3,0x27
    80006eb2:	1e1e                	slli	t3,t3,0x27
    80006eb4:	1e1e                	slli	t3,t3,0x27
    80006eb6:	1e1e                	slli	t3,t3,0x27
    80006eb8:	1e1e                	slli	t3,t3,0x27
    80006eba:	1e1e                	slli	t3,t3,0x27
    80006ebc:	1e1e                	slli	t3,t3,0x27
    80006ebe:	1e1e                	slli	t3,t3,0x27
    80006ec0:	1e1e                	slli	t3,t3,0x27
    80006ec2:	1e1e                	slli	t3,t3,0x27
    80006ec4:	1e1e                	slli	t3,t3,0x27
    80006ec6:	1e1e                	slli	t3,t3,0x27
    80006ec8:	1e1e                	slli	t3,t3,0x27
    80006eca:	1e1e                	slli	t3,t3,0x27
    80006ecc:	1e1e                	slli	t3,t3,0x27
    80006ece:	1e1e                	slli	t3,t3,0x27
    80006ed0:	1e1e                	slli	t3,t3,0x27
    80006ed2:	1e1e                	slli	t3,t3,0x27
    80006ed4:	1e1e                	slli	t3,t3,0x27
    80006ed6:	1e1e                	slli	t3,t3,0x27
    80006ed8:	1e1e                	slli	t3,t3,0x27
    80006eda:	1e1e                	slli	t3,t3,0x27
    80006edc:	1e1e                	slli	t3,t3,0x27
    80006ede:	1e1e                	slli	t3,t3,0x27
    80006ee0:	1e1e                	slli	t3,t3,0x27
    80006ee2:	1e1e                	slli	t3,t3,0x27
    80006ee4:	1e1e                	slli	t3,t3,0x27
    80006ee6:	1e1e                	slli	t3,t3,0x27
    80006ee8:	1e1e                	slli	t3,t3,0x27
    80006eea:	1e1e                	slli	t3,t3,0x27
    80006eec:	1e1e                	slli	t3,t3,0x27
    80006eee:	1e1e                	slli	t3,t3,0x27
    80006ef0:	1e1e                	slli	t3,t3,0x27
    80006ef2:	1e1e                	slli	t3,t3,0x27
    80006ef4:	1e1e                	slli	t3,t3,0x27
    80006ef6:	1e1e                	slli	t3,t3,0x27
    80006ef8:	1e1e                	slli	t3,t3,0x27
    80006efa:	1e1e                	slli	t3,t3,0x27
    80006efc:	1e1e                	slli	t3,t3,0x27
    80006efe:	1e1e                	slli	t3,t3,0x27
    80006f00:	1e1e                	slli	t3,t3,0x27
    80006f02:	1e1e                	slli	t3,t3,0x27
    80006f04:	1e1e                	slli	t3,t3,0x27
    80006f06:	1e1e                	slli	t3,t3,0x27
    80006f08:	1e1e                	slli	t3,t3,0x27
    80006f0a:	1e1e                	slli	t3,t3,0x27
    80006f0c:	1e1e                	slli	t3,t3,0x27
    80006f0e:	1e1e                	slli	t3,t3,0x27
    80006f10:	1e1e                	slli	t3,t3,0x27
    80006f12:	1e1e                	slli	t3,t3,0x27
    80006f14:	1e1e                	slli	t3,t3,0x27
    80006f16:	1e1e                	slli	t3,t3,0x27
    80006f18:	1e1e                	slli	t3,t3,0x27
    80006f1a:	1e1e                	slli	t3,t3,0x27
    80006f1c:	1e1e                	slli	t3,t3,0x27
    80006f1e:	1e1e                	slli	t3,t3,0x27
    80006f20:	1e1e                	slli	t3,t3,0x27
    80006f22:	1e1e                	slli	t3,t3,0x27
    80006f24:	1e1e                	slli	t3,t3,0x27
    80006f26:	1e1e                	slli	t3,t3,0x27
    80006f28:	1e1e                	slli	t3,t3,0x27
    80006f2a:	1e1e                	slli	t3,t3,0x27
    80006f2c:	1e1e                	slli	t3,t3,0x27
    80006f2e:	1e1e                	slli	t3,t3,0x27
    80006f30:	1e1e                	slli	t3,t3,0x27
    80006f32:	1e1e                	slli	t3,t3,0x27
    80006f34:	1e1e                	slli	t3,t3,0x27
    80006f36:	1e1e                	slli	t3,t3,0x27
    80006f38:	1e1e                	slli	t3,t3,0x27
    80006f3a:	1e1e                	slli	t3,t3,0x27
    80006f3c:	1e1e                	slli	t3,t3,0x27
    80006f3e:	1e1e                	slli	t3,t3,0x27
    80006f40:	1e1e                	slli	t3,t3,0x27
    80006f42:	1e1e                	slli	t3,t3,0x27
    80006f44:	1e1e                	slli	t3,t3,0x27
    80006f46:	1e1e                	slli	t3,t3,0x27
    80006f48:	1e1e                	slli	t3,t3,0x27
    80006f4a:	1e1e                	slli	t3,t3,0x27
    80006f4c:	1e1e                	slli	t3,t3,0x27
    80006f4e:	1e1e                	slli	t3,t3,0x27
    80006f50:	1e1e                	slli	t3,t3,0x27
    80006f52:	1e1e                	slli	t3,t3,0x27
    80006f54:	1e1e                	slli	t3,t3,0x27
    80006f56:	1e1e                	slli	t3,t3,0x27
    80006f58:	1e1e                	slli	t3,t3,0x27
    80006f5a:	1e1e                	slli	t3,t3,0x27
    80006f5c:	1e1e                	slli	t3,t3,0x27
    80006f5e:	1e1e                	slli	t3,t3,0x27
    80006f60:	1e1e                	slli	t3,t3,0x27
    80006f62:	1e1e                	slli	t3,t3,0x27
    80006f64:	1e1e                	slli	t3,t3,0x27
    80006f66:	1e1e                	slli	t3,t3,0x27
    80006f68:	1e1e                	slli	t3,t3,0x27
    80006f6a:	1e1e                	slli	t3,t3,0x27
    80006f6c:	1e1e                	slli	t3,t3,0x27
    80006f6e:	1e1e                	slli	t3,t3,0x27
    80006f70:	1e1e                	slli	t3,t3,0x27
    80006f72:	1e1e                	slli	t3,t3,0x27
    80006f74:	1e1e                	slli	t3,t3,0x27
    80006f76:	1e1e                	slli	t3,t3,0x27
    80006f78:	1e1e                	slli	t3,t3,0x27
    80006f7a:	1e1e                	slli	t3,t3,0x27
    80006f7c:	1e1e                	slli	t3,t3,0x27
    80006f7e:	1e1e                	slli	t3,t3,0x27
    80006f80:	1e1e                	slli	t3,t3,0x27
    80006f82:	1e1e                	slli	t3,t3,0x27
    80006f84:	1e1e                	slli	t3,t3,0x27
    80006f86:	1e1e                	slli	t3,t3,0x27
    80006f88:	1e1e                	slli	t3,t3,0x27
    80006f8a:	1e1e                	slli	t3,t3,0x27
    80006f8c:	1e1e                	slli	t3,t3,0x27
    80006f8e:	1e1e                	slli	t3,t3,0x27
    80006f90:	1e1e                	slli	t3,t3,0x27
    80006f92:	1e1e                	slli	t3,t3,0x27
    80006f94:	1e1e                	slli	t3,t3,0x27
    80006f96:	1e1e                	slli	t3,t3,0x27
    80006f98:	1e1e                	slli	t3,t3,0x27
    80006f9a:	1e1e                	slli	t3,t3,0x27
    80006f9c:	1e1e                	slli	t3,t3,0x27
    80006f9e:	1e1e                	slli	t3,t3,0x27
    80006fa0:	1e1e                	slli	t3,t3,0x27
    80006fa2:	1e1e                	slli	t3,t3,0x27
    80006fa4:	1e1e                	slli	t3,t3,0x27
    80006fa6:	1e1e                	slli	t3,t3,0x27
    80006fa8:	1e1e                	slli	t3,t3,0x27
    80006faa:	1e1e                	slli	t3,t3,0x27
    80006fac:	1e1e                	slli	t3,t3,0x27
    80006fae:	1e1e                	slli	t3,t3,0x27
    80006fb0:	1e1e                	slli	t3,t3,0x27
    80006fb2:	1e1e                	slli	t3,t3,0x27
    80006fb4:	1e1e                	slli	t3,t3,0x27
    80006fb6:	1e1e                	slli	t3,t3,0x27
    80006fb8:	1e1e                	slli	t3,t3,0x27
    80006fba:	1e1e                	slli	t3,t3,0x27
    80006fbc:	1e1e                	slli	t3,t3,0x27
    80006fbe:	1e1e                	slli	t3,t3,0x27
    80006fc0:	1e1e                	slli	t3,t3,0x27
    80006fc2:	1e1e                	slli	t3,t3,0x27
    80006fc4:	1e1e                	slli	t3,t3,0x27
    80006fc6:	1e1e                	slli	t3,t3,0x27
    80006fc8:	1e1e                	slli	t3,t3,0x27
    80006fca:	1e1e                	slli	t3,t3,0x27
    80006fcc:	1e1e                	slli	t3,t3,0x27
    80006fce:	1e1e                	slli	t3,t3,0x27
    80006fd0:	1e1e                	slli	t3,t3,0x27
    80006fd2:	1e1e                	slli	t3,t3,0x27
    80006fd4:	1e1e                	slli	t3,t3,0x27
    80006fd6:	1e1e                	slli	t3,t3,0x27
    80006fd8:	1e1e                	slli	t3,t3,0x27
    80006fda:	1e1e                	slli	t3,t3,0x27
    80006fdc:	1e1e                	slli	t3,t3,0x27
    80006fde:	1e1e                	slli	t3,t3,0x27
    80006fe0:	1e1e                	slli	t3,t3,0x27
    80006fe2:	1e1e                	slli	t3,t3,0x27
    80006fe4:	1e1e                	slli	t3,t3,0x27
    80006fe6:	1e1e                	slli	t3,t3,0x27
    80006fe8:	1e1e                	slli	t3,t3,0x27
    80006fea:	1e1e                	slli	t3,t3,0x27
    80006fec:	1e1e                	slli	t3,t3,0x27
    80006fee:	1e1e                	slli	t3,t3,0x27
    80006ff0:	1e1e                	slli	t3,t3,0x27
    80006ff2:	1e1e                	slli	t3,t3,0x27
    80006ff4:	1e1e                	slli	t3,t3,0x27
    80006ff6:	1e1e                	slli	t3,t3,0x27
    80006ff8:	1e1e                	slli	t3,t3,0x27
    80006ffa:	1e1e                	slli	t3,t3,0x27
    80006ffc:	1e1e                	slli	t3,t3,0x27
    80006ffe:	1e1e                	slli	t3,t3,0x27
    80007000:	1e1e                	slli	t3,t3,0x27
    80007002:	1e1e                	slli	t3,t3,0x27
    80007004:	1e1e                	slli	t3,t3,0x27
    80007006:	1e1e                	slli	t3,t3,0x27
    80007008:	1e1e                	slli	t3,t3,0x27
    8000700a:	1e1e                	slli	t3,t3,0x27
    8000700c:	1e1e                	slli	t3,t3,0x27
    8000700e:	1e1e                	slli	t3,t3,0x27
    80007010:	1e1e                	slli	t3,t3,0x27
    80007012:	1e1e                	slli	t3,t3,0x27
    80007014:	1e1e                	slli	t3,t3,0x27
    80007016:	1e1e                	slli	t3,t3,0x27
    80007018:	1e1e                	slli	t3,t3,0x27
    8000701a:	1e1e                	slli	t3,t3,0x27
    8000701c:	1e1e                	slli	t3,t3,0x27
    8000701e:	1e1e                	slli	t3,t3,0x27
    80007020:	1e1e                	slli	t3,t3,0x27
    80007022:	1e1e                	slli	t3,t3,0x27
    80007024:	1e1e                	slli	t3,t3,0x27
    80007026:	1e1e                	slli	t3,t3,0x27
    80007028:	1e1e                	slli	t3,t3,0x27
    8000702a:	1e1e                	slli	t3,t3,0x27
    8000702c:	1e1e                	slli	t3,t3,0x27
    8000702e:	1e1e                	slli	t3,t3,0x27
    80007030:	1e1e                	slli	t3,t3,0x27
    80007032:	1e1e                	slli	t3,t3,0x27
    80007034:	1e1e                	slli	t3,t3,0x27
